SF:C:\Users\achur\OneDrive\Documents\Programacion\Rust\wallet_project\common\src\lib.rs
FN:1,_RNvCsl62HRq4Su3p_6common4init
FNDA:0,_RNvCsl62HRq4Su3p_6common4init
FNF:1
FNH:0
DA:1,0
DA:2,0
DA:3,0
BRF:0
BRH:0
LF:3
LH:0
end_of_record
SF:C:\Users\achur\OneDrive\Documents\Programacion\Rust\wallet_project\transaction_service\src\api\error.rs
FN:21,_RNvXs_NtNtCshYfsMyf1ONS_19transaction_service3api5errorNtB4_8ApiErrorNtNtNtCs1rzvS2e3Skr_9axum_core8response13into_response12IntoResponse13into_response
FN:15,_RNvXNtNtCshYfsMyf1ONS_19transaction_service3api5errorNtB2_8ApiErrorINtNtCs8CEGv8KHL4Y_4core7convert4FromNtNtNtB6_6domain5error16TransactionErrorE4from
FNDA:0,_RNvXs_NtNtCshYfsMyf1ONS_19transaction_service3api5errorNtB4_8ApiErrorNtNtNtCs1rzvS2e3Skr_9axum_core8response13into_response12IntoResponse13into_response
FNDA:0,_RNvXNtNtCshYfsMyf1ONS_19transaction_service3api5errorNtB2_8ApiErrorINtNtCs8CEGv8KHL4Y_4core7convert4FromNtNtNtB6_6domain5error16TransactionErrorE4from
FNF:2
FNH:0
DA:15,0
DA:16,0
DA:17,0
DA:21,0
DA:22,0
DA:23,0
DA:24,0
DA:25,0
DA:26,0
DA:27,0
DA:28,0
DA:29,0
DA:30,0
DA:31,0
DA:32,0
DA:35,0
DA:36,0
DA:37,0
DA:38,0
DA:40,0
DA:41,0
BRF:0
BRH:0
LF:21
LH:0
end_of_record
SF:C:\Users\achur\OneDrive\Documents\Programacion\Rust\wallet_project\transaction_service\src\api\http_routes.rs
FN:74,_RNvNtNtCshYfsMyf1ONS_19transaction_service3api11http_routes18get_wallet_history
FN:44,_RNvNtNtCshYfsMyf1ONS_19transaction_service3api11http_routes20initiate_transaction
FN:63,_RNvNtNtCshYfsMyf1ONS_19transaction_service3api11http_routes23get_transaction_details
FN:25,_RNvNtNtCshYfsMyf1ONS_19transaction_service3api11http_routes6routes
FN:77,_RNCNvNtNtCshYfsMyf1ONS_19transaction_service3api11http_routes18get_wallet_history0B7_
FN:47,_RNCNvNtNtCshYfsMyf1ONS_19transaction_service3api11http_routes20initiate_transaction0B7_
FN:66,_RNCNvNtNtCshYfsMyf1ONS_19transaction_service3api11http_routes23get_transaction_details0B7_
FNDA:0,_RNvNtNtCshYfsMyf1ONS_19transaction_service3api11http_routes18get_wallet_history
FNDA:0,_RNvNtNtCshYfsMyf1ONS_19transaction_service3api11http_routes20initiate_transaction
FNDA:0,_RNvNtNtCshYfsMyf1ONS_19transaction_service3api11http_routes23get_transaction_details
FNDA:0,_RNvNtNtCshYfsMyf1ONS_19transaction_service3api11http_routes6routes
FNDA:0,_RNCNvNtNtCshYfsMyf1ONS_19transaction_service3api11http_routes18get_wallet_history0B7_
FNDA:0,_RNCNvNtNtCshYfsMyf1ONS_19transaction_service3api11http_routes20initiate_transaction0B7_
FNDA:0,_RNCNvNtNtCshYfsMyf1ONS_19transaction_service3api11http_routes23get_transaction_details0B7_
FNF:7
FNH:0
DA:25,0
DA:26,0
DA:27,0
DA:28,0
DA:29,0
DA:30,0
DA:31,0
DA:44,0
DA:45,0
DA:46,0
DA:47,0
DA:48,0
DA:49,0
DA:50,0
DA:51,0
DA:52,0
DA:53,0
DA:54,0
DA:55,0
DA:56,0
DA:58,0
DA:59,0
DA:63,0
DA:64,0
DA:65,0
DA:66,0
DA:67,0
DA:69,0
DA:70,0
DA:74,0
DA:75,0
DA:76,0
DA:77,0
DA:78,0
DA:80,0
DA:81,0
BRF:0
BRH:0
LF:39
LH:0
end_of_record
SF:C:\Users\achur\OneDrive\Documents\Programacion\Rust\wallet_project\transaction_service\src\api\response.rs
FN:10,_RNvMNtNtCshYfsMyf1ONS_19transaction_service3api8responseINtB2_11ApiResponseNtNtCsi2yG4E9i6WH_10serde_json5value5ValueE7successB6_
FNDA:0,_RNvMNtNtCshYfsMyf1ONS_19transaction_service3api8responseINtB2_11ApiResponseNtNtCsi2yG4E9i6WH_10serde_json5value5ValueE7successB6_
FNF:1
FNH:0
DA:10,0
DA:11,0
DA:12,0
DA:13,0
DA:14,0
DA:15,0
BRF:0
BRH:0
LF:6
LH:0
end_of_record
SF:C:\Users\achur\OneDrive\Documents\Programacion\Rust\wallet_project\transaction_service\src\bin\verify_db.rs
FN:21,_RNCNCNvCsaI74AUsHvnI_9verify_db4main00B5_
FN:30,_RNCNCNvCsaI74AUsHvnI_9verify_db4main0s_0B5_
FN:10,_RNCNvCsaI74AUsHvnI_9verify_db4main0B3_
FN:10,_RNvCsaI74AUsHvnI_9verify_db4main
FNDA:0,_RNCNCNvCsaI74AUsHvnI_9verify_db4main00B5_
FNDA:0,_RNCNCNvCsaI74AUsHvnI_9verify_db4main0s_0B5_
FNDA:0,_RNCNvCsaI74AUsHvnI_9verify_db4main0B3_
FNDA:0,_RNvCsaI74AUsHvnI_9verify_db4main
FNF:4
FNH:0
DA:10,0
DA:12,0
DA:14,0
DA:17,0
DA:18,0
DA:19,0
DA:20,0
DA:21,0
DA:23,0
DA:26,0
DA:27,0
DA:28,0
DA:29,0
DA:30,0
DA:31,0
DA:33,0
DA:36,0
DA:37,0
DA:38,0
DA:39,0
DA:40,0
DA:41,0
DA:42,0
DA:43,0
DA:44,0
DA:45,0
DA:47,0
DA:49,0
DA:50,0
DA:51,0
DA:52,0
DA:53,0
DA:54,0
DA:55,0
DA:56,0
DA:57,0
DA:58,0
DA:59,0
DA:60,0
DA:61,0
DA:62,0
DA:63,0
DA:64,0
DA:65,0
BRF:0
BRH:0
LF:61
LH:0
end_of_record
SF:C:\Users\achur\OneDrive\Documents\Programacion\Rust\wallet_project\transaction_service\src\domain\entities.rs
FN:97,_RNvNtNtNtCshYfsMyf1ONS_19transaction_service6domain8entities5testss_27test_create_deposit_success
FN:81,_RNvNtNtNtCshYfsMyf1ONS_19transaction_service6domain8entities5testss_28test_create_transfer_success
FN:124,_RNvNtNtNtCshYfsMyf1ONS_19transaction_service6domain8entities5testss_29test_create_same_wallet_error
FN:38,_RNvMNtNtCshYfsMyf1ONS_19transaction_service6domain8entitiesNtB2_11Transaction3new
FNDA:1,_RNvNtNtNtCshYfsMyf1ONS_19transaction_service6domain8entities5testss_27test_create_deposit_success
FNDA:1,_RNvNtNtNtCshYfsMyf1ONS_19transaction_service6domain8entities5testss_28test_create_transfer_success
FNDA:1,_RNvNtNtNtCshYfsMyf1ONS_19transaction_service6domain8entities5testss_29test_create_same_wallet_error
FNDA:7,_RNvMNtNtCshYfsMyf1ONS_19transaction_service6domain8entitiesNtB2_11Transaction3new
FNF:4
FNH:4
DA:38,7
DA:39,7
DA:40,7
DA:41,7
DA:42,7
DA:43,7
DA:45,7
DA:46,2
DA:47,5
DA:50,5
DA:51,4
DA:52,4
DA:53,1
DA:54,3
DA:55,3
DA:57,1
DA:61,4
DA:62,4
DA:63,4
DA:64,4
DA:65,4
DA:66,4
DA:67,4
DA:68,4
DA:69,4
DA:70,4
DA:71,7
DA:81,1
DA:82,1
DA:83,1
DA:84,1
DA:85,1
DA:87,1
DA:89,1
DA:90,1
DA:91,1
DA:92,1
DA:93,1
DA:94,1
DA:97,1
DA:98,1
DA:99,1
DA:100,1
DA:102,1
DA:104,1
DA:105,1
DA:106,1
DA:107,1
DA:124,1
DA:125,1
DA:126,1
DA:127,1
DA:129,1
DA:131,1
DA:132,1
BRF:0
BRH:0
LF:55
LH:55
end_of_record
SF:C:\Users\achur\OneDrive\Documents\Programacion\Rust\wallet_project\transaction_service\src\infrastructure\gateways\fake_wallet_gateway.rs
FN:12,_RNvMNtNtNtCshYfsMyf1ONS_19transaction_service14infrastructure8gateways19fake_wallet_gatewayNtB2_17FakeWalletGateway3new
FN:19,_RNvXs_NtNtNtCshYfsMyf1ONS_19transaction_service14infrastructure8gateways19fake_wallet_gatewayNtB4_17FakeWalletGatewayNtNtNtBa_6domain8gateways13WalletGateway16process_movement
FNDA:0,_RNvMNtNtNtCshYfsMyf1ONS_19transaction_service14infrastructure8gateways19fake_wallet_gatewayNtB2_17FakeWalletGateway3new
FNDA:0,_RNvXs_NtNtNtCshYfsMyf1ONS_19transaction_service14infrastructure8gateways19fake_wallet_gatewayNtB4_17FakeWalletGatewayNtNtNtBa_6domain8gateways13WalletGateway16process_movement
FNF:2
FNH:0
DA:12,0
DA:13,0
DA:14,0
DA:19,0
DA:34,0
BRF:0
BRH:0
LF:5
LH:0
end_of_record
SF:C:\Users\achur\OneDrive\Documents\Programacion\Rust\wallet_project\transaction_service\src\infrastructure\persistence\models.rs
FN:28,_RNvXNtNtNtCshYfsMyf1ONS_19transaction_service14infrastructure11persistence6modelsNtB2_16TransactionModelINtNtCs8CEGv8KHL4Y_4core7convert4FromRNtNtNtB8_6domain8entities11TransactionE4from
FN:46,_RNvXs_NtNtNtCshYfsMyf1ONS_19transaction_service14infrastructure11persistence6modelsNtNtNtBa_6domain8entities11TransactionINtNtCs8CEGv8KHL4Y_4core7convert4FromNtB4_16TransactionModelE4from
FNDA:0,_RNvXNtNtNtCshYfsMyf1ONS_19transaction_service14infrastructure11persistence6modelsNtB2_16TransactionModelINtNtCs8CEGv8KHL4Y_4core7convert4FromRNtNtNtB8_6domain8entities11TransactionE4from
FNDA:0,_RNvXs_NtNtNtCshYfsMyf1ONS_19transaction_service14infrastructure11persistence6modelsNtNtNtBa_6domain8entities11TransactionINtNtCs8CEGv8KHL4Y_4core7convert4FromNtB4_16TransactionModelE4from
FNF:2
FNH:0
DA:28,0
DA:29,0
DA:30,0
DA:31,0
DA:32,0
DA:33,0
DA:34,0
DA:35,0
DA:36,0
DA:37,0
DA:38,0
DA:39,0
DA:46,0
DA:47,0
DA:48,0
DA:49,0
DA:50,0
DA:51,0
DA:52,0
DA:53,0
DA:54,0
DA:55,0
DA:56,0
DA:57,0
BRF:0
BRH:0
LF:24
LH:0
end_of_record
SF:C:\Users\achur\OneDrive\Documents\Programacion\Rust\wallet_project\transaction_service\src\infrastructure\persistence\transaction_repository.rs
FN:101,_RNCNCNvXs_NtNtNtCshYfsMyf1ONS_19transaction_service14infrastructure11persistence22transaction_repositoryNtB8_29PostgresTransactionRepositoryNtNtNtBe_6domain10repository21TransactionRepository10find_by_id00Be_
FN:128,_RNCNCNvXs_NtNtNtCshYfsMyf1ONS_19transaction_service14infrastructure11persistence22transaction_repositoryNtB8_29PostgresTransactionRepositoryNtNtNtBe_6domain10repository21TransactionRepository17find_by_wallet_id00Be_
FN:151,_RNCNCNvXs_NtNtNtCshYfsMyf1ONS_19transaction_service14infrastructure11persistence22transaction_repositoryNtB8_29PostgresTransactionRepositoryNtNtNtBe_6domain10repository21TransactionRepository22find_by_correlation_id00Be_
FN:176,_RNCNCNvXs_NtNtNtCshYfsMyf1ONS_19transaction_service14infrastructure11persistence22transaction_repositoryNtB8_29PostgresTransactionRepositoryNtNtNtBe_6domain10repository21TransactionRepository23find_pending_older_than00Be_
FN:60,_RNCNCNvXs_NtNtNtCshYfsMyf1ONS_19transaction_service14infrastructure11persistence22transaction_repositoryNtB8_29PostgresTransactionRepositoryNtNtNtBe_6domain10repository21TransactionRepository4save00Be_
FN:86,_RNCNCNvXs_NtNtNtCshYfsMyf1ONS_19transaction_service14infrastructure11persistence22transaction_repositoryNtB8_29PostgresTransactionRepositoryNtNtNtBe_6domain10repository21TransactionRepository6update00Be_
FN:21,_RNvMNtNtNtCshYfsMyf1ONS_19transaction_service14infrastructure11persistence22transaction_repositoryNtB2_29PostgresTransactionRepository3new
FN:95,_RNvXs_NtNtNtCshYfsMyf1ONS_19transaction_service14infrastructure11persistence22transaction_repositoryNtB4_29PostgresTransactionRepositoryNtNtNtBa_6domain10repository21TransactionRepository10find_by_id
FN:117,_RNvXs_NtNtNtCshYfsMyf1ONS_19transaction_service14infrastructure11persistence22transaction_repositoryNtB4_29PostgresTransactionRepositoryNtNtNtBa_6domain10repository21TransactionRepository17find_by_wallet_id
FN:144,_RNvXs_NtNtNtCshYfsMyf1ONS_19transaction_service14infrastructure11persistence22transaction_repositoryNtB4_29PostgresTransactionRepositoryNtNtNtBa_6domain10repository21TransactionRepository22find_by_correlation_id
FN:164,_RNvXs_NtNtNtCshYfsMyf1ONS_19transaction_service14infrastructure11persistence22transaction_repositoryNtB4_29PostgresTransactionRepositoryNtNtNtBa_6domain10repository21TransactionRepository23find_pending_older_than
FN:35,_RNvXs_NtNtNtCshYfsMyf1ONS_19transaction_service14infrastructure11persistence22transaction_repositoryNtB4_29PostgresTransactionRepositoryNtNtNtBa_6domain10repository21TransactionRepository4save
FN:70,_RNvXs_NtNtNtCshYfsMyf1ONS_19transaction_service14infrastructure11persistence22transaction_repositoryNtB4_29PostgresTransactionRepositoryNtNtNtBa_6domain10repository21TransactionRepository6update
FNDA:0,_RNCNCNvXs_NtNtNtCshYfsMyf1ONS_19transaction_service14infrastructure11persistence22transaction_repositoryNtB8_29PostgresTransactionRepositoryNtNtNtBe_6domain10repository21TransactionRepository10find_by_id00Be_
FNDA:0,_RNCNCNvXs_NtNtNtCshYfsMyf1ONS_19transaction_service14infrastructure11persistence22transaction_repositoryNtB8_29PostgresTransactionRepositoryNtNtNtBe_6domain10repository21TransactionRepository17find_by_wallet_id00Be_
FNDA:0,_RNCNCNvXs_NtNtNtCshYfsMyf1ONS_19transaction_service14infrastructure11persistence22transaction_repositoryNtB8_29PostgresTransactionRepositoryNtNtNtBe_6domain10repository21TransactionRepository22find_by_correlation_id00Be_
FNDA:0,_RNCNCNvXs_NtNtNtCshYfsMyf1ONS_19transaction_service14infrastructure11persistence22transaction_repositoryNtB8_29PostgresTransactionRepositoryNtNtNtBe_6domain10repository21TransactionRepository23find_pending_older_than00Be_
FNDA:0,_RNCNCNvXs_NtNtNtCshYfsMyf1ONS_19transaction_service14infrastructure11persistence22transaction_repositoryNtB8_29PostgresTransactionRepositoryNtNtNtBe_6domain10repository21TransactionRepository4save00Be_
FNDA:0,_RNCNCNvXs_NtNtNtCshYfsMyf1ONS_19transaction_service14infrastructure11persistence22transaction_repositoryNtB8_29PostgresTransactionRepositoryNtNtNtBe_6domain10repository21TransactionRepository6update00Be_
FNDA:0,_RNvMNtNtNtCshYfsMyf1ONS_19transaction_service14infrastructure11persistence22transaction_repositoryNtB2_29PostgresTransactionRepository3new
FNDA:0,_RNvXs_NtNtNtCshYfsMyf1ONS_19transaction_service14infrastructure11persistence22transaction_repositoryNtB4_29PostgresTransactionRepositoryNtNtNtBa_6domain10repository21TransactionRepository10find_by_id
FNDA:0,_RNvXs_NtNtNtCshYfsMyf1ONS_19transaction_service14infrastructure11persistence22transaction_repositoryNtB4_29PostgresTransactionRepositoryNtNtNtBa_6domain10repository21TransactionRepository17find_by_wallet_id
FNDA:0,_RNvXs_NtNtNtCshYfsMyf1ONS_19transaction_service14infrastructure11persistence22transaction_repositoryNtB4_29PostgresTransactionRepositoryNtNtNtBa_6domain10repository21TransactionRepository22find_by_correlation_id
FNDA:0,_RNvXs_NtNtNtCshYfsMyf1ONS_19transaction_service14infrastructure11persistence22transaction_repositoryNtB4_29PostgresTransactionRepositoryNtNtNtBa_6domain10repository21TransactionRepository23find_pending_older_than
FNDA:0,_RNvXs_NtNtNtCshYfsMyf1ONS_19transaction_service14infrastructure11persistence22transaction_repositoryNtB4_29PostgresTransactionRepositoryNtNtNtBa_6domain10repository21TransactionRepository4save
FNDA:0,_RNvXs_NtNtNtCshYfsMyf1ONS_19transaction_service14infrastructure11persistence22transaction_repositoryNtB4_29PostgresTransactionRepositoryNtNtNtBa_6domain10repository21TransactionRepository6update
FNF:13
FNH:0
DA:21,0
DA:22,0
DA:23,0
DA:35,0
DA:60,0
DA:64,0
DA:70,0
DA:86,0
DA:92,0
DA:95,0
DA:101,0
DA:108,0
DA:117,0
DA:128,0
DA:136,0
DA:144,0
DA:151,0
DA:158,0
DA:164,0
DA:176,0
DA:184,0
BRF:0
BRH:0
LF:21
LH:0
end_of_record
SF:C:\Users\achur\OneDrive\Documents\Programacion\Rust\wallet_project\transaction_service\src\jobs\retry.rs
FN:29,_RNCNvMNtNtCshYfsMyf1ONS_19transaction_service4jobs5retryNtB4_25RetryFailedTransactionJob3run0B8_
FN:18,_RNvMNtNtCshYfsMyf1ONS_19transaction_service4jobs5retryNtB2_25RetryFailedTransactionJob3new
FN:29,_RNvMNtNtCshYfsMyf1ONS_19transaction_service4jobs5retryNtB2_25RetryFailedTransactionJob3run
FNDA:0,_RNCNvMNtNtCshYfsMyf1ONS_19transaction_service4jobs5retryNtB4_25RetryFailedTransactionJob3run0B8_
FNDA:0,_RNvMNtNtCshYfsMyf1ONS_19transaction_service4jobs5retryNtB2_25RetryFailedTransactionJob3new
FNDA:0,_RNvMNtNtCshYfsMyf1ONS_19transaction_service4jobs5retryNtB2_25RetryFailedTransactionJob3run
FNF:3
FNH:0
DA:18,0
DA:19,0
DA:20,0
DA:21,0
DA:22,0
DA:23,0
DA:24,0
DA:25,0
DA:26,0
DA:29,0
DA:30,0
DA:34,0
DA:36,0
DA:37,0
DA:38,0
DA:39,0
DA:41,0
DA:42,0
DA:43,0
DA:44,0
DA:46,0
DA:48,0
DA:51,0
DA:52,0
DA:58,0
DA:60,0
DA:61,0
DA:64,0
DA:65,0
DA:67,0
DA:69,0
DA:73,0
DA:78,0
DA:79,0
DA:84,0
DA:88,0
DA:89,0
DA:92,0
BRF:0
BRH:0
LF:39
LH:0
end_of_record
SF:C:\Users\achur\OneDrive\Documents\Programacion\Rust\wallet_project\transaction_service\src\main.rs
FN:64,_RNCNCNvCsgFKMraUqin4_19transaction_service4main00B5_
FN:72,_RNCNCNvCsgFKMraUqin4_19transaction_service4main0s0_0B5_
FN:65,_RNCNCNvCsgFKMraUqin4_19transaction_service4main0s_0B5_
FN:21,_RNCNvCsgFKMraUqin4_19transaction_service4main0B3_
FN:21,_RNvCsgFKMraUqin4_19transaction_service4main
FNDA:0,_RNCNCNvCsgFKMraUqin4_19transaction_service4main00B5_
FNDA:0,_RNCNCNvCsgFKMraUqin4_19transaction_service4main0s0_0B5_
FNDA:0,_RNCNCNvCsgFKMraUqin4_19transaction_service4main0s_0B5_
FNDA:0,_RNCNvCsgFKMraUqin4_19transaction_service4main0B3_
FNDA:0,_RNvCsgFKMraUqin4_19transaction_service4main
FNF:5
FNH:0
DA:21,0
DA:23,0
DA:26,0
DA:27,0
DA:28,0
DA:29,0
DA:31,0
DA:34,0
DA:35,0
DA:36,0
DA:37,0
DA:38,0
DA:40,0
DA:43,0
DA:45,0
DA:48,0
DA:49,0
DA:50,0
DA:51,0
DA:52,0
DA:55,0
DA:56,0
DA:57,0
DA:58,0
DA:59,0
DA:62,0
DA:64,0
DA:65,0
DA:66,0
DA:69,0
DA:70,0
DA:72,0
DA:74,0
DA:75,0
DA:76,0
DA:78,0
DA:81,0
DA:82,0
DA:86,0
DA:88,0
DA:89,0
DA:91,0
DA:92,0
BRF:0
BRH:0
LF:48
LH:0
end_of_record
SF:C:\Users\achur\OneDrive\Documents\Programacion\Rust\wallet_project\transaction_service\src\use_cases\get_transaction_details.rs
FN:36,_RNvMNtNtCshYfsMyf1ONS_19transaction_service9use_cases23get_transaction_detailsNtB2_28GetTransactionDetailsUseCase7execute
FN:21,_RNvMNtNtCshYfsMyf1ONS_19transaction_service9use_cases23get_transaction_detailsNtB2_28GetTransactionDetailsUseCase3new
FN:36,_RNCNvMNtNtCshYfsMyf1ONS_19transaction_service9use_cases23get_transaction_detailsNtB4_28GetTransactionDetailsUseCase7execute0B8_
FNDA:0,_RNvMNtNtCshYfsMyf1ONS_19transaction_service9use_cases23get_transaction_detailsNtB2_28GetTransactionDetailsUseCase7execute
FNDA:0,_RNvMNtNtCshYfsMyf1ONS_19transaction_service9use_cases23get_transaction_detailsNtB2_28GetTransactionDetailsUseCase3new
FNDA:0,_RNCNvMNtNtCshYfsMyf1ONS_19transaction_service9use_cases23get_transaction_detailsNtB4_28GetTransactionDetailsUseCase7execute0B8_
FNF:3
FNH:0
DA:21,0
DA:22,0
DA:23,0
DA:36,0
DA:41,0
BRF:0
BRH:0
LF:6
LH:0
end_of_record
SF:C:\Users\achur\OneDrive\Documents\Programacion\Rust\wallet_project\transaction_service\src\use_cases\get_wallet_history.rs
FN:37,_RNvMNtNtCshYfsMyf1ONS_19transaction_service9use_cases18get_wallet_historyNtB2_23GetWalletHistoryUseCase7execute
FN:22,_RNvMNtNtCshYfsMyf1ONS_19transaction_service9use_cases18get_wallet_historyNtB2_23GetWalletHistoryUseCase3new
FN:37,_RNCNvMNtNtCshYfsMyf1ONS_19transaction_service9use_cases18get_wallet_historyNtB4_23GetWalletHistoryUseCase7execute0B8_
FNDA:0,_RNvMNtNtCshYfsMyf1ONS_19transaction_service9use_cases18get_wallet_historyNtB2_23GetWalletHistoryUseCase7execute
FNDA:0,_RNvMNtNtCshYfsMyf1ONS_19transaction_service9use_cases18get_wallet_historyNtB2_23GetWalletHistoryUseCase3new
FNDA:0,_RNCNvMNtNtCshYfsMyf1ONS_19transaction_service9use_cases18get_wallet_historyNtB4_23GetWalletHistoryUseCase7execute0B8_
FNF:3
FNH:0
DA:22,0
DA:23,0
DA:24,0
DA:37,0
DA:39,0
BRF:0
BRH:0
LF:6
LH:0
end_of_record
SF:C:\Users\achur\OneDrive\Documents\Programacion\Rust\wallet_project\transaction_service\src\use_cases\process_transaction.rs
FN:139,_RINvMs4_NtNtNtNtNtCshYfsMyf1ONS_19transaction_service9use_cases19process_transaction5tests58___mock_MockTransactionRepositoryImpl_TransactionRepository19___find_by_wallet_idNtB6_6Common15verify_sequenceNCNvMs6_B6_NtB6_11Expectation4call0EBg_
FN:139,_RINvMs4_NtNtNtNtNtCshYfsMyf1ONS_19transaction_service9use_cases19process_transaction5tests58___mock_MockTransactionRepositoryImpl_TransactionRepository19___find_by_wallet_idNtB6_6Common4callNCNvMs6_B6_NtB6_11Expectation4call0EBg_
FN:127,_RNCINvMs4_NtNtNtNtNtCshYfsMyf1ONS_19transaction_service9use_cases19process_transaction5tests58___mock_MockTransactionRepositoryImpl_TransactionRepository19___find_by_wallet_idNtB8_6Common4callNCNvMs6_B8_NtB8_11Expectation4call0E0Bi_
FN:139,_RNCNvMs0_NtNtNtNtNtCshYfsMyf1ONS_19transaction_service9use_cases19process_transaction5tests58___mock_MockTransactionRepositoryImpl_TransactionRepository19___find_by_wallet_idNtB7_7Matcher7matches0Bh_
FN:127,_RNCNvMs6_NtNtNtNtNtCshYfsMyf1ONS_19transaction_service9use_cases19process_transaction5tests58___mock_MockTransactionRepositoryImpl_TransactionRepository19___find_by_wallet_idNtB7_11Expectation4call0Bh_
FN:127,_RNCNvMs6_NtNtNtNtNtCshYfsMyf1ONS_19transaction_service9use_cases19process_transaction5tests58___mock_MockTransactionRepositoryImpl_TransactionRepository19___find_by_wallet_idNtB7_11Expectation4calls_0Bh_
FN:139,_RNCNvMsa_NtNtNtNtNtCshYfsMyf1ONS_19transaction_service9use_cases19process_transaction5tests58___mock_MockTransactionRepositoryImpl_TransactionRepository19___find_by_wallet_idNtB7_12Expectations4call0Bh_
FN:127,_RNCNvMsa_NtNtNtNtNtCshYfsMyf1ONS_19transaction_service9use_cases19process_transaction5tests58___mock_MockTransactionRepositoryImpl_TransactionRepository19___find_by_wallet_idNtB7_12Expectations4calls_0Bh_
FN:210,_RNCNCNvNtNtNtCshYfsMyf1ONS_19transaction_service9use_cases19process_transaction5testss_32test_process_transaction_success00Bb_
FN:224,_RNCNCNvNtNtNtCshYfsMyf1ONS_19transaction_service9use_cases19process_transaction5testss_32test_process_transaction_success0s1_0Bb_
FN:228,_RNCNCNvNtNtNtCshYfsMyf1ONS_19transaction_service9use_cases19process_transaction5testss_32test_process_transaction_success0s2_0Bb_
FN:213,_RNCNCNvNtNtNtCshYfsMyf1ONS_19transaction_service9use_cases19process_transaction5testss_32test_process_transaction_success0s_0Bb_
FN:173,_RNCNCNvNtNtNtCshYfsMyf1ONS_19transaction_service9use_cases19process_transaction5testss_36test_process_transaction_idempotency00Bb_
FN:255,_RNCNCNvNtNtNtCshYfsMyf1ONS_19transaction_service9use_cases19process_transaction5testss_40test_process_transaction_gateway_failure00Bb_
FN:266,_RNCNCNvNtNtNtCshYfsMyf1ONS_19transaction_service9use_cases19process_transaction5testss_40test_process_transaction_gateway_failure0s1_0Bb_
FN:270,_RNCNCNvNtNtNtCshYfsMyf1ONS_19transaction_service9use_cases19process_transaction5testss_40test_process_transaction_gateway_failure0s2_0Bb_
FN:256,_RNCNCNvNtNtNtCshYfsMyf1ONS_19transaction_service9use_cases19process_transaction5testss_40test_process_transaction_gateway_failure0s_0Bb_
FN:195,_RNCNvNtNtNtCshYfsMyf1ONS_19transaction_service9use_cases19process_transaction5testss_32test_process_transaction_success0B9_
FN:151,_RNCNvNtNtNtCshYfsMyf1ONS_19transaction_service9use_cases19process_transaction5testss_36test_process_transaction_idempotency0B9_
FN:243,_RNCNvNtNtNtCshYfsMyf1ONS_19transaction_service9use_cases19process_transaction5testss_40test_process_transaction_gateway_failure0B9_
FN:139,_RINvMs4_NtNtNtNtNtCshYfsMyf1ONS_19transaction_service9use_cases19process_transaction5tests58___mock_MockTransactionRepositoryImpl_TransactionRepository8___updateNtB6_6Common15verify_sequenceNCNvMs6_B6_NtB6_11Expectation4call0EBg_
FN:139,_RINvMs4_NtNtNtNtNtCshYfsMyf1ONS_19transaction_service9use_cases19process_transaction5tests58___mock_MockTransactionRepositoryImpl_TransactionRepository8___updateNtB6_6Common4callNCNvMs6_B6_NtB6_11Expectation4call0EBg_
FN:139,_RINvMs4_NtNtNtNtNtCshYfsMyf1ONS_19transaction_service9use_cases19process_transaction5tests58___mock_MockTransactionRepositoryImpl_TransactionRepository8___updateNtB6_6Common4withINtNtCs3yJXAUNYaTE_10predicates8function11FnPredicateNCNCNvBa_s_32test_process_transaction_success0s1_0NtNtNtBg_6domain8entities11TransactionEEBg_
FN:139,_RINvMs4_NtNtNtNtNtCshYfsMyf1ONS_19transaction_service9use_cases19process_transaction5tests58___mock_MockTransactionRepositoryImpl_TransactionRepository8___updateNtB6_6Common4withINtNtCs3yJXAUNYaTE_10predicates8function11FnPredicateNCNCNvBa_s_40test_process_transaction_gateway_failure0s1_0NtNtNtBg_6domain8entities11TransactionEEBg_
FN:139,_RINvMs4_NtNtNtNtNtCshYfsMyf1ONS_19transaction_service9use_cases19process_transaction5tests58___mock_MockTransactionRepositoryImpl_TransactionRepository8___updateNtB6_6Common5timesjEBg_
FN:139,_RINvMs6_NtNtNtNtNtCshYfsMyf1ONS_19transaction_service9use_cases19process_transaction5tests58___mock_MockTransactionRepositoryImpl_TransactionRepository8___updateNtB6_11Expectation4withINtNtCs3yJXAUNYaTE_10predicates8function11FnPredicateNCNCNvBa_s_32test_process_transaction_success0s1_0NtNtNtBg_6domain8entities11TransactionEEBg_
FN:139,_RINvMs6_NtNtNtNtNtCshYfsMyf1ONS_19transaction_service9use_cases19process_transaction5tests58___mock_MockTransactionRepositoryImpl_TransactionRepository8___updateNtB6_11Expectation4withINtNtCs3yJXAUNYaTE_10predicates8function11FnPredicateNCNCNvBa_s_40test_process_transaction_gateway_failure0s1_0NtNtNtBg_6domain8entities11TransactionEEBg_
FN:139,_RINvMs6_NtNtNtNtNtCshYfsMyf1ONS_19transaction_service9use_cases19process_transaction5tests58___mock_MockTransactionRepositoryImpl_TransactionRepository8___updateNtB6_11Expectation5timesjEBg_
FN:139,_RINvMs6_NtNtNtNtNtCshYfsMyf1ONS_19transaction_service9use_cases19process_transaction5tests58___mock_MockTransactionRepositoryImpl_TransactionRepository8___updateNtB6_11Expectation9returningNCNCNvBa_s_32test_process_transaction_success0s2_0EBg_
FN:139,_RINvMs6_NtNtNtNtNtCshYfsMyf1ONS_19transaction_service9use_cases19process_transaction5tests58___mock_MockTransactionRepositoryImpl_TransactionRepository8___updateNtB6_11Expectation9returningNCNCNvBa_s_40test_process_transaction_gateway_failure0s2_0EBg_
FN:127,_RNCINvMs4_NtNtNtNtNtCshYfsMyf1ONS_19transaction_service9use_cases19process_transaction5tests58___mock_MockTransactionRepositoryImpl_TransactionRepository8___updateNtB8_6Common4callNCNvMs6_B8_NtB8_11Expectation4call0E0Bi_
FN:139,_RNCNvMs0_NtNtNtNtNtCshYfsMyf1ONS_19transaction_service9use_cases19process_transaction5tests58___mock_MockTransactionRepositoryImpl_TransactionRepository8___updateNtB7_7Matcher7matches0Bh_
FN:127,_RNCNvMs6_NtNtNtNtNtCshYfsMyf1ONS_19transaction_service9use_cases19process_transaction5tests58___mock_MockTransactionRepositoryImpl_TransactionRepository8___updateNtB7_11Expectation4call0Bh_
FN:127,_RNCNvMs6_NtNtNtNtNtCshYfsMyf1ONS_19transaction_service9use_cases19process_transaction5tests58___mock_MockTransactionRepositoryImpl_TransactionRepository8___updateNtB7_11Expectation4calls_0Bh_
FN:139,_RNCNvMsa_NtNtNtNtNtCshYfsMyf1ONS_19transaction_service9use_cases19process_transaction5tests58___mock_MockTransactionRepositoryImpl_TransactionRepository8___updateNtB7_12Expectations4call0Bh_
FN:127,_RNCNvMsa_NtNtNtNtNtCshYfsMyf1ONS_19transaction_service9use_cases19process_transaction5tests58___mock_MockTransactionRepositoryImpl_TransactionRepository8___updateNtB7_12Expectations4calls_0Bh_
FN:139,_RNvMs1_NtNtNtCshYfsMyf1ONS_19transaction_service9use_cases19process_transaction5testsNtB5_29MockTransactionRepositoryImpl3new
FN:139,_RNvMs2_NtNtNtCshYfsMyf1ONS_19transaction_service9use_cases19process_transaction5testsNtB5_29MockTransactionRepositoryImpl11expect_save
FN:139,_RNvMs2_NtNtNtCshYfsMyf1ONS_19transaction_service9use_cases19process_transaction5testsNtB5_29MockTransactionRepositoryImpl13expect_update
FN:139,_RNvMs2_NtNtNtCshYfsMyf1ONS_19transaction_service9use_cases19process_transaction5testsNtB5_29MockTransactionRepositoryImpl29expect_find_by_correlation_id
FN:148,_RNvMs7_NtNtNtCshYfsMyf1ONS_19transaction_service9use_cases19process_transaction5testsNtB5_21MockWalletGatewayImpl3new
FN:148,_RNvMs8_NtNtNtCshYfsMyf1ONS_19transaction_service9use_cases19process_transaction5testsNtB5_21MockWalletGatewayImpl23expect_process_movement
FN:195,_RNvNtNtNtCshYfsMyf1ONS_19transaction_service9use_cases19process_transaction5testss_32test_process_transaction_success
FN:151,_RNvNtNtNtCshYfsMyf1ONS_19transaction_service9use_cases19process_transaction5testss_36test_process_transaction_idempotency
FN:243,_RNvNtNtNtCshYfsMyf1ONS_19transaction_service9use_cases19process_transaction5testss_40test_process_transaction_gateway_failure
FN:139,_RNvXNtNtNtCshYfsMyf1ONS_19transaction_service9use_cases19process_transaction5testsNtB2_29MockTransactionRepositoryImplNtNtCs8CEGv8KHL4Y_4core7default7Default7default
FN:139,_RNvXs3_NtNtNtCshYfsMyf1ONS_19transaction_service9use_cases19process_transaction5testsNtB5_29MockTransactionRepositoryImplNtNtNtBb_6domain10repository21TransactionRepository10find_by_id
FN:139,_RNvXs3_NtNtNtCshYfsMyf1ONS_19transaction_service9use_cases19process_transaction5testsNtB5_29MockTransactionRepositoryImplNtNtNtBb_6domain10repository21TransactionRepository17find_by_wallet_id
FN:139,_RNvXs3_NtNtNtCshYfsMyf1ONS_19transaction_service9use_cases19process_transaction5testsNtB5_29MockTransactionRepositoryImplNtNtNtBb_6domain10repository21TransactionRepository22find_by_correlation_id
FN:139,_RNvXs3_NtNtNtCshYfsMyf1ONS_19transaction_service9use_cases19process_transaction5testsNtB5_29MockTransactionRepositoryImplNtNtNtBb_6domain10repository21TransactionRepository23find_pending_older_than
FN:139,_RNvXs3_NtNtNtCshYfsMyf1ONS_19transaction_service9use_cases19process_transaction5testsNtB5_29MockTransactionRepositoryImplNtNtNtBb_6domain10repository21TransactionRepository4save
FN:139,_RNvXs3_NtNtNtCshYfsMyf1ONS_19transaction_service9use_cases19process_transaction5testsNtB5_29MockTransactionRepositoryImplNtNtNtBb_6domain10repository21TransactionRepository6update
FN:148,_RNvXs4_NtNtNtCshYfsMyf1ONS_19transaction_service9use_cases19process_transaction5testsNtB5_21MockWalletGatewayImplNtNtCs8CEGv8KHL4Y_4core7default7Default7default
FN:148,_RNvXs5_NtNtNtCshYfsMyf1ONS_19transaction_service9use_cases19process_transaction5testsNtB5_35MockWalletGatewayImpl_WalletGatewayNtNtCs8CEGv8KHL4Y_4core7default7Default7default
FN:148,_RNvXs9_NtNtNtCshYfsMyf1ONS_19transaction_service9use_cases19process_transaction5testsNtB5_21MockWalletGatewayImplNtNtNtBb_6domain8gateways13WalletGateway16process_movement
FN:139,_RNvXs_NtNtNtCshYfsMyf1ONS_19transaction_service9use_cases19process_transaction5testsNtB4_51MockTransactionRepositoryImpl_TransactionRepositoryNtNtCs8CEGv8KHL4Y_4core7default7Default7default
FN:139,_RNvMNtNtNtNtNtCshYfsMyf1ONS_19transaction_service9use_cases19process_transaction5tests58___mock_MockTransactionRepositoryImpl_TransactionRepository8___updateNtB2_5Rfunc8call_mut
FN:139,_RNvMs0_NtNtNtNtNtCshYfsMyf1ONS_19transaction_service9use_cases19process_transaction5tests58___mock_MockTransactionRepositoryImpl_TransactionRepository8___updateNtB5_7Matcher7matches
FN:139,_RNvMs4_NtNtNtNtNtCshYfsMyf1ONS_19transaction_service9use_cases19process_transaction5tests58___mock_MockTransactionRepositoryImpl_TransactionRepository8___updateNtB5_6Common15called_sequence
FN:139,_RNvMs4_NtNtNtNtNtCshYfsMyf1ONS_19transaction_service9use_cases19process_transaction5tests58___mock_MockTransactionRepositoryImpl_TransactionRepository8___updateNtB5_6Common16satisfy_sequence
FN:139,_RNvMs4_NtNtNtNtNtCshYfsMyf1ONS_19transaction_service9use_cases19process_transaction5tests58___mock_MockTransactionRepositoryImpl_TransactionRepository8___updateNtB5_6Common19is_history_sequence
FN:139,_RNvMs4_NtNtNtNtNtCshYfsMyf1ONS_19transaction_service9use_cases19process_transaction5tests58___mock_MockTransactionRepositoryImpl_TransactionRepository8___updateNtB5_6Common7is_done
FN:139,_RNvMs4_NtNtNtNtNtCshYfsMyf1ONS_19transaction_service9use_cases19process_transaction5tests58___mock_MockTransactionRepositoryImpl_TransactionRepository8___updateNtB5_6Common7matches
FN:139,_RNvMs6_NtNtNtNtNtCshYfsMyf1ONS_19transaction_service9use_cases19process_transaction5tests58___mock_MockTransactionRepositoryImpl_TransactionRepository8___updateNtB5_11Expectation4call
FN:139,_RNvMs6_NtNtNtNtNtCshYfsMyf1ONS_19transaction_service9use_cases19process_transaction5tests58___mock_MockTransactionRepositoryImpl_TransactionRepository8___updateNtB5_11Expectation7is_done
FN:139,_RNvMs6_NtNtNtNtNtCshYfsMyf1ONS_19transaction_service9use_cases19process_transaction5tests58___mock_MockTransactionRepositoryImpl_TransactionRepository8___updateNtB5_11Expectation7matches
FN:139,_RNvMs8_NtNtNtNtNtCshYfsMyf1ONS_19transaction_service9use_cases19process_transaction5tests58___mock_MockTransactionRepositoryImpl_TransactionRepository8___updateNtB5_12Expectations3new
FN:139,_RNvMs8_NtNtNtNtNtCshYfsMyf1ONS_19transaction_service9use_cases19process_transaction5tests58___mock_MockTransactionRepositoryImpl_TransactionRepository8___updateNtB5_12Expectations6expect
FN:139,_RNvMsa_NtNtNtNtNtCshYfsMyf1ONS_19transaction_service9use_cases19process_transaction5tests58___mock_MockTransactionRepositoryImpl_TransactionRepository8___updateNtB5_12Expectations4call
FN:139,_RNvXs1_NtNtNtNtNtCshYfsMyf1ONS_19transaction_service9use_cases19process_transaction5tests58___mock_MockTransactionRepositoryImpl_TransactionRepository8___updateNtB5_7MatcherNtNtCs8CEGv8KHL4Y_4core7default7Default7default
FN:139,_RNvXs2_NtNtNtNtNtCshYfsMyf1ONS_19transaction_service9use_cases19process_transaction5tests58___mock_MockTransactionRepositoryImpl_TransactionRepository8___updateNtB5_7MatcherNtNtCs8CEGv8KHL4Y_4core3fmt7Display3fmt
FN:139,_RNvXs3_NtNtNtNtNtCshYfsMyf1ONS_19transaction_service9use_cases19process_transaction5tests58___mock_MockTransactionRepositoryImpl_TransactionRepository8___updateNtB5_6CommonNtNtCs8CEGv8KHL4Y_4core7default7Default7default
FN:139,_RNvXs7_NtNtNtNtNtCshYfsMyf1ONS_19transaction_service9use_cases19process_transaction5tests58___mock_MockTransactionRepositoryImpl_TransactionRepository8___updateNtB5_11ExpectationNtNtCs8CEGv8KHL4Y_4core7default7Default7default
FN:139,_RNvXs9_NtNtNtNtNtCshYfsMyf1ONS_19transaction_service9use_cases19process_transaction5tests58___mock_MockTransactionRepositoryImpl_TransactionRepository8___updateNtB5_12ExpectationsNtNtCs8CEGv8KHL4Y_4core7default7Default7default
FN:139,_RNvXs_NtNtNtNtNtCshYfsMyf1ONS_19transaction_service9use_cases19process_transaction5tests58___mock_MockTransactionRepositoryImpl_TransactionRepository8___updateNtB4_5RfuncNtNtCs8CEGv8KHL4Y_4core7default7Default7default
FN:139,_RNvMNtNtNtNtNtCshYfsMyf1ONS_19transaction_service9use_cases19process_transaction5tests58___mock_MockTransactionRepositoryImpl_TransactionRepository24___find_by_correlation_idNtB2_5Rfunc8call_mut
FN:139,_RNvMs0_NtNtNtNtNtCshYfsMyf1ONS_19transaction_service9use_cases19process_transaction5tests58___mock_MockTransactionRepositoryImpl_TransactionRepository24___find_by_correlation_idNtB5_7Matcher7matches
FN:139,_RNvMs4_NtNtNtNtNtCshYfsMyf1ONS_19transaction_service9use_cases19process_transaction5tests58___mock_MockTransactionRepositoryImpl_TransactionRepository24___find_by_correlation_idNtB5_6Common15called_sequence
FN:139,_RNvMs4_NtNtNtNtNtCshYfsMyf1ONS_19transaction_service9use_cases19process_transaction5tests58___mock_MockTransactionRepositoryImpl_TransactionRepository24___find_by_correlation_idNtB5_6Common16satisfy_sequence
FN:139,_RNvMs4_NtNtNtNtNtCshYfsMyf1ONS_19transaction_service9use_cases19process_transaction5tests58___mock_MockTransactionRepositoryImpl_TransactionRepository24___find_by_correlation_idNtB5_6Common19is_history_sequence
FN:139,_RNvMs4_NtNtNtNtNtCshYfsMyf1ONS_19transaction_service9use_cases19process_transaction5tests58___mock_MockTransactionRepositoryImpl_TransactionRepository24___find_by_correlation_idNtB5_6Common7is_done
FN:139,_RNvMs4_NtNtNtNtNtCshYfsMyf1ONS_19transaction_service9use_cases19process_transaction5tests58___mock_MockTransactionRepositoryImpl_TransactionRepository24___find_by_correlation_idNtB5_6Common7matches
FN:139,_RNvMs6_NtNtNtNtNtCshYfsMyf1ONS_19transaction_service9use_cases19process_transaction5tests58___mock_MockTransactionRepositoryImpl_TransactionRepository24___find_by_correlation_idNtB5_11Expectation4call
FN:139,_RNvMs6_NtNtNtNtNtCshYfsMyf1ONS_19transaction_service9use_cases19process_transaction5tests58___mock_MockTransactionRepositoryImpl_TransactionRepository24___find_by_correlation_idNtB5_11Expectation7is_done
FN:139,_RNvMs6_NtNtNtNtNtCshYfsMyf1ONS_19transaction_service9use_cases19process_transaction5tests58___mock_MockTransactionRepositoryImpl_TransactionRepository24___find_by_correlation_idNtB5_11Expectation7matches
FN:139,_RNvMs8_NtNtNtNtNtCshYfsMyf1ONS_19transaction_service9use_cases19process_transaction5tests58___mock_MockTransactionRepositoryImpl_TransactionRepository24___find_by_correlation_idNtB5_12Expectations3new
FN:139,_RNvMs8_NtNtNtNtNtCshYfsMyf1ONS_19transaction_service9use_cases19process_transaction5tests58___mock_MockTransactionRepositoryImpl_TransactionRepository24___find_by_correlation_idNtB5_12Expectations6expect
FN:139,_RNvMsa_NtNtNtNtNtCshYfsMyf1ONS_19transaction_service9use_cases19process_transaction5tests58___mock_MockTransactionRepositoryImpl_TransactionRepository24___find_by_correlation_idNtB5_12Expectations4call
FN:139,_RNvXs1_NtNtNtNtNtCshYfsMyf1ONS_19transaction_service9use_cases19process_transaction5tests58___mock_MockTransactionRepositoryImpl_TransactionRepository24___find_by_correlation_idNtB5_7MatcherNtNtCs8CEGv8KHL4Y_4core7default7Default7default
FN:139,_RNvXs2_NtNtNtNtNtCshYfsMyf1ONS_19transaction_service9use_cases19process_transaction5tests58___mock_MockTransactionRepositoryImpl_TransactionRepository24___find_by_correlation_idNtB5_7MatcherNtNtCs8CEGv8KHL4Y_4core3fmt7Display3fmt
FN:139,_RNvXs3_NtNtNtNtNtCshYfsMyf1ONS_19transaction_service9use_cases19process_transaction5tests58___mock_MockTransactionRepositoryImpl_TransactionRepository24___find_by_correlation_idNtB5_6CommonNtNtCs8CEGv8KHL4Y_4core7default7Default7default
FN:139,_RNvXs7_NtNtNtNtNtCshYfsMyf1ONS_19transaction_service9use_cases19process_transaction5tests58___mock_MockTransactionRepositoryImpl_TransactionRepository24___find_by_correlation_idNtB5_11ExpectationNtNtCs8CEGv8KHL4Y_4core7default7Default7default
FN:139,_RNvXs9_NtNtNtNtNtCshYfsMyf1ONS_19transaction_service9use_cases19process_transaction5tests58___mock_MockTransactionRepositoryImpl_TransactionRepository24___find_by_correlation_idNtB5_12ExpectationsNtNtCs8CEGv8KHL4Y_4core7default7Default7default
FN:139,_RNvXs_NtNtNtNtNtCshYfsMyf1ONS_19transaction_service9use_cases19process_transaction5tests58___mock_MockTransactionRepositoryImpl_TransactionRepository24___find_by_correlation_idNtB4_5RfuncNtNtCs8CEGv8KHL4Y_4core7default7Default7default
FN:139,_RINvMs4_NtNtNtNtNtCshYfsMyf1ONS_19transaction_service9use_cases19process_transaction5tests58___mock_MockTransactionRepositoryImpl_TransactionRepository24___find_by_correlation_idNtB6_6Common15verify_sequenceNCNvMs6_B6_NtB6_11Expectation4call0EBg_
FN:139,_RINvMs4_NtNtNtNtNtCshYfsMyf1ONS_19transaction_service9use_cases19process_transaction5tests58___mock_MockTransactionRepositoryImpl_TransactionRepository24___find_by_correlation_idNtB6_6Common4callNCNvMs6_B6_NtB6_11Expectation4call0EBg_
FN:139,_RINvMs4_NtNtNtNtNtCshYfsMyf1ONS_19transaction_service9use_cases19process_transaction5tests58___mock_MockTransactionRepositoryImpl_TransactionRepository24___find_by_correlation_idNtB6_6Common4withINtNtCs3yJXAUNYaTE_10predicates3ord11EqPredicateNtCskdSumWYQxYL_4uuid4UuidEEBg_
FN:139,_RINvMs4_NtNtNtNtNtCshYfsMyf1ONS_19transaction_service9use_cases19process_transaction5tests58___mock_MockTransactionRepositoryImpl_TransactionRepository24___find_by_correlation_idNtB6_6Common5timesjEBg_
FN:139,_RINvMs6_NtNtNtNtNtCshYfsMyf1ONS_19transaction_service9use_cases19process_transaction5tests58___mock_MockTransactionRepositoryImpl_TransactionRepository24___find_by_correlation_idNtB6_11Expectation4withINtNtCs3yJXAUNYaTE_10predicates3ord11EqPredicateNtCskdSumWYQxYL_4uuid4UuidEEBg_
FN:139,_RINvMs6_NtNtNtNtNtCshYfsMyf1ONS_19transaction_service9use_cases19process_transaction5tests58___mock_MockTransactionRepositoryImpl_TransactionRepository24___find_by_correlation_idNtB6_11Expectation5timesjEBg_
FN:139,_RINvMs6_NtNtNtNtNtCshYfsMyf1ONS_19transaction_service9use_cases19process_transaction5tests58___mock_MockTransactionRepositoryImpl_TransactionRepository24___find_by_correlation_idNtB6_11Expectation9returningNCNCNvBa_s_32test_process_transaction_success00EBg_
FN:139,_RINvMs6_NtNtNtNtNtCshYfsMyf1ONS_19transaction_service9use_cases19process_transaction5tests58___mock_MockTransactionRepositoryImpl_TransactionRepository24___find_by_correlation_idNtB6_11Expectation9returningNCNCNvBa_s_36test_process_transaction_idempotency00EBg_
FN:139,_RINvMs6_NtNtNtNtNtCshYfsMyf1ONS_19transaction_service9use_cases19process_transaction5tests58___mock_MockTransactionRepositoryImpl_TransactionRepository24___find_by_correlation_idNtB6_11Expectation9returningNCNCNvBa_s_40test_process_transaction_gateway_failure00EBg_
FN:127,_RNCINvMs4_NtNtNtNtNtCshYfsMyf1ONS_19transaction_service9use_cases19process_transaction5tests58___mock_MockTransactionRepositoryImpl_TransactionRepository24___find_by_correlation_idNtB8_6Common4callNCNvMs6_B8_NtB8_11Expectation4call0E0Bi_
FN:139,_RNCNvMs0_NtNtNtNtNtCshYfsMyf1ONS_19transaction_service9use_cases19process_transaction5tests58___mock_MockTransactionRepositoryImpl_TransactionRepository24___find_by_correlation_idNtB7_7Matcher7matches0Bh_
FN:127,_RNCNvMs6_NtNtNtNtNtCshYfsMyf1ONS_19transaction_service9use_cases19process_transaction5tests58___mock_MockTransactionRepositoryImpl_TransactionRepository24___find_by_correlation_idNtB7_11Expectation4call0Bh_
FN:127,_RNCNvMs6_NtNtNtNtNtCshYfsMyf1ONS_19transaction_service9use_cases19process_transaction5tests58___mock_MockTransactionRepositoryImpl_TransactionRepository24___find_by_correlation_idNtB7_11Expectation4calls_0Bh_
FN:139,_RNCNvMsa_NtNtNtNtNtCshYfsMyf1ONS_19transaction_service9use_cases19process_transaction5tests58___mock_MockTransactionRepositoryImpl_TransactionRepository24___find_by_correlation_idNtB7_12Expectations4call0Bh_
FN:127,_RNCNvMsa_NtNtNtNtNtCshYfsMyf1ONS_19transaction_service9use_cases19process_transaction5tests58___mock_MockTransactionRepositoryImpl_TransactionRepository24___find_by_correlation_idNtB7_12Expectations4calls_0Bh_
FN:17,_RNvMNtNtCshYfsMyf1ONS_19transaction_service9use_cases19process_transactionNtB2_25ProcessTransactionUseCase3new
FN:27,_RNvMNtNtCshYfsMyf1ONS_19transaction_service9use_cases19process_transactionNtB2_25ProcessTransactionUseCase7execute
FN:139,_RINvMs4_NtNtNtNtNtCshYfsMyf1ONS_19transaction_service9use_cases19process_transaction5tests58___mock_MockTransactionRepositoryImpl_TransactionRepository25___find_pending_older_thanNtB6_6Common15verify_sequenceNCNvMs6_B6_NtB6_11Expectation4call0EBg_
FN:139,_RINvMs4_NtNtNtNtNtCshYfsMyf1ONS_19transaction_service9use_cases19process_transaction5tests58___mock_MockTransactionRepositoryImpl_TransactionRepository25___find_pending_older_thanNtB6_6Common4callNCNvMs6_B6_NtB6_11Expectation4call0EBg_
FN:127,_RNCINvMs4_NtNtNtNtNtCshYfsMyf1ONS_19transaction_service9use_cases19process_transaction5tests58___mock_MockTransactionRepositoryImpl_TransactionRepository25___find_pending_older_thanNtB8_6Common4callNCNvMs6_B8_NtB8_11Expectation4call0E0Bi_
FN:139,_RNCNvMs0_NtNtNtNtNtCshYfsMyf1ONS_19transaction_service9use_cases19process_transaction5tests58___mock_MockTransactionRepositoryImpl_TransactionRepository25___find_pending_older_thanNtB7_7Matcher7matches0Bh_
FN:127,_RNCNvMs6_NtNtNtNtNtCshYfsMyf1ONS_19transaction_service9use_cases19process_transaction5tests58___mock_MockTransactionRepositoryImpl_TransactionRepository25___find_pending_older_thanNtB7_11Expectation4call0Bh_
FN:127,_RNCNvMs6_NtNtNtNtNtCshYfsMyf1ONS_19transaction_service9use_cases19process_transaction5tests58___mock_MockTransactionRepositoryImpl_TransactionRepository25___find_pending_older_thanNtB7_11Expectation4calls_0Bh_
FN:139,_RNCNvMsa_NtNtNtNtNtCshYfsMyf1ONS_19transaction_service9use_cases19process_transaction5tests58___mock_MockTransactionRepositoryImpl_TransactionRepository25___find_pending_older_thanNtB7_12Expectations4call0Bh_
FN:127,_RNCNvMsa_NtNtNtNtNtCshYfsMyf1ONS_19transaction_service9use_cases19process_transaction5tests58___mock_MockTransactionRepositoryImpl_TransactionRepository25___find_pending_older_thanNtB7_12Expectations4calls_0Bh_
FN:148,_RINvMs4_NtNtNtNtNtCshYfsMyf1ONS_19transaction_service9use_cases19process_transaction5tests42___mock_MockWalletGatewayImpl_WalletGateway18___process_movementNtB6_6Common4withpEBg_
FN:148,_RINvMs4_NtNtNtNtNtCshYfsMyf1ONS_19transaction_service9use_cases19process_transaction5tests42___mock_MockWalletGatewayImpl_WalletGateway18___process_movementNtB6_6Common5withfpEBg_
FN:148,_RINvMs4_NtNtNtNtNtCshYfsMyf1ONS_19transaction_service9use_cases19process_transaction5tests42___mock_MockWalletGatewayImpl_WalletGateway18___process_movementNtB6_6Common8withf_stpEBg_
FN:139,_RINvMs4_NtNtNtNtNtCshYfsMyf1ONS_19transaction_service9use_cases19process_transaction5tests58___mock_MockTransactionRepositoryImpl_TransactionRepository12___find_by_idNtB6_6Common4withpEBg_
FN:139,_RINvMs4_NtNtNtNtNtCshYfsMyf1ONS_19transaction_service9use_cases19process_transaction5tests58___mock_MockTransactionRepositoryImpl_TransactionRepository12___find_by_idNtB6_6Common5timespEBg_
FN:139,_RINvMs4_NtNtNtNtNtCshYfsMyf1ONS_19transaction_service9use_cases19process_transaction5tests58___mock_MockTransactionRepositoryImpl_TransactionRepository12___find_by_idNtB6_6Common5withfpEBg_
FN:139,_RINvMs4_NtNtNtNtNtCshYfsMyf1ONS_19transaction_service9use_cases19process_transaction5tests58___mock_MockTransactionRepositoryImpl_TransactionRepository12___find_by_idNtB6_6Common8withf_stpEBg_
FN:139,_RINvMs4_NtNtNtNtNtCshYfsMyf1ONS_19transaction_service9use_cases19process_transaction5tests58___mock_MockTransactionRepositoryImpl_TransactionRepository19___find_by_wallet_idNtB6_6Common4withpEBg_
FN:139,_RINvMs4_NtNtNtNtNtCshYfsMyf1ONS_19transaction_service9use_cases19process_transaction5tests58___mock_MockTransactionRepositoryImpl_TransactionRepository19___find_by_wallet_idNtB6_6Common5timespEBg_
FN:139,_RINvMs4_NtNtNtNtNtCshYfsMyf1ONS_19transaction_service9use_cases19process_transaction5tests58___mock_MockTransactionRepositoryImpl_TransactionRepository19___find_by_wallet_idNtB6_6Common5withfpEBg_
FN:139,_RINvMs4_NtNtNtNtNtCshYfsMyf1ONS_19transaction_service9use_cases19process_transaction5tests58___mock_MockTransactionRepositoryImpl_TransactionRepository19___find_by_wallet_idNtB6_6Common8withf_stpEBg_
FN:139,_RINvMs4_NtNtNtNtNtCshYfsMyf1ONS_19transaction_service9use_cases19process_transaction5tests58___mock_MockTransactionRepositoryImpl_TransactionRepository24___find_by_correlation_idNtB6_6Common5withfpEBg_
FN:139,_RINvMs4_NtNtNtNtNtCshYfsMyf1ONS_19transaction_service9use_cases19process_transaction5tests58___mock_MockTransactionRepositoryImpl_TransactionRepository24___find_by_correlation_idNtB6_6Common8withf_stpEBg_
FN:139,_RINvMs4_NtNtNtNtNtCshYfsMyf1ONS_19transaction_service9use_cases19process_transaction5tests58___mock_MockTransactionRepositoryImpl_TransactionRepository25___find_pending_older_thanNtB6_6Common4withpEBg_
FN:139,_RINvMs4_NtNtNtNtNtCshYfsMyf1ONS_19transaction_service9use_cases19process_transaction5tests58___mock_MockTransactionRepositoryImpl_TransactionRepository25___find_pending_older_thanNtB6_6Common5timespEBg_
FN:139,_RINvMs4_NtNtNtNtNtCshYfsMyf1ONS_19transaction_service9use_cases19process_transaction5tests58___mock_MockTransactionRepositoryImpl_TransactionRepository25___find_pending_older_thanNtB6_6Common5withfpEBg_
FN:139,_RINvMs4_NtNtNtNtNtCshYfsMyf1ONS_19transaction_service9use_cases19process_transaction5tests58___mock_MockTransactionRepositoryImpl_TransactionRepository25___find_pending_older_thanNtB6_6Common8withf_stpEBg_
FN:139,_RINvMs4_NtNtNtNtNtCshYfsMyf1ONS_19transaction_service9use_cases19process_transaction5tests58___mock_MockTransactionRepositoryImpl_TransactionRepository6___saveNtB6_6Common4withpEBg_
FN:139,_RINvMs4_NtNtNtNtNtCshYfsMyf1ONS_19transaction_service9use_cases19process_transaction5tests58___mock_MockTransactionRepositoryImpl_TransactionRepository6___saveNtB6_6Common5withfpEBg_
FN:139,_RINvMs4_NtNtNtNtNtCshYfsMyf1ONS_19transaction_service9use_cases19process_transaction5tests58___mock_MockTransactionRepositoryImpl_TransactionRepository6___saveNtB6_6Common8withf_stpEBg_
FN:139,_RINvMs4_NtNtNtNtNtCshYfsMyf1ONS_19transaction_service9use_cases19process_transaction5tests58___mock_MockTransactionRepositoryImpl_TransactionRepository8___updateNtB6_6Common5withfpEBg_
FN:139,_RINvMs4_NtNtNtNtNtCshYfsMyf1ONS_19transaction_service9use_cases19process_transaction5tests58___mock_MockTransactionRepositoryImpl_TransactionRepository8___updateNtB6_6Common8withf_stpEBg_
FN:148,_RINvMs6_NtNtNtNtNtCshYfsMyf1ONS_19transaction_service9use_cases19process_transaction5tests42___mock_MockWalletGatewayImpl_WalletGateway18___process_movementNtB6_11Expectation11return_oncepEBg_
FN:148,_RINvMs6_NtNtNtNtNtCshYfsMyf1ONS_19transaction_service9use_cases19process_transaction5tests42___mock_MockWalletGatewayImpl_WalletGateway18___process_movementNtB6_11Expectation12return_constpEBg_
FN:148,_RINvMs6_NtNtNtNtNtCshYfsMyf1ONS_19transaction_service9use_cases19process_transaction5tests42___mock_MockWalletGatewayImpl_WalletGateway18___process_movementNtB6_11Expectation12returning_stpEBg_
FN:148,_RINvMs6_NtNtNtNtNtCshYfsMyf1ONS_19transaction_service9use_cases19process_transaction5tests42___mock_MockWalletGatewayImpl_WalletGateway18___process_movementNtB6_11Expectation14return_once_stpEBg_
FN:148,_RINvMs6_NtNtNtNtNtCshYfsMyf1ONS_19transaction_service9use_cases19process_transaction5tests42___mock_MockWalletGatewayImpl_WalletGateway18___process_movementNtB6_11Expectation15return_const_stpEBg_
FN:148,_RINvMs6_NtNtNtNtNtCshYfsMyf1ONS_19transaction_service9use_cases19process_transaction5tests42___mock_MockWalletGatewayImpl_WalletGateway18___process_movementNtB6_11Expectation4withpEBg_
FN:148,_RINvMs6_NtNtNtNtNtCshYfsMyf1ONS_19transaction_service9use_cases19process_transaction5tests42___mock_MockWalletGatewayImpl_WalletGateway18___process_movementNtB6_11Expectation5withfpEBg_
FN:148,_RINvMs6_NtNtNtNtNtCshYfsMyf1ONS_19transaction_service9use_cases19process_transaction5tests42___mock_MockWalletGatewayImpl_WalletGateway18___process_movementNtB6_11Expectation8withf_stpEBg_
FN:139,_RINvMs6_NtNtNtNtNtCshYfsMyf1ONS_19transaction_service9use_cases19process_transaction5tests58___mock_MockTransactionRepositoryImpl_TransactionRepository12___find_by_idNtB6_11Expectation11return_oncepEBg_
FN:139,_RINvMs6_NtNtNtNtNtCshYfsMyf1ONS_19transaction_service9use_cases19process_transaction5tests58___mock_MockTransactionRepositoryImpl_TransactionRepository12___find_by_idNtB6_11Expectation12return_constpEBg_
FN:139,_RINvMs6_NtNtNtNtNtCshYfsMyf1ONS_19transaction_service9use_cases19process_transaction5tests58___mock_MockTransactionRepositoryImpl_TransactionRepository12___find_by_idNtB6_11Expectation12returning_stpEBg_
FN:139,_RINvMs6_NtNtNtNtNtCshYfsMyf1ONS_19transaction_service9use_cases19process_transaction5tests58___mock_MockTransactionRepositoryImpl_TransactionRepository12___find_by_idNtB6_11Expectation14return_once_stpEBg_
FN:139,_RINvMs6_NtNtNtNtNtCshYfsMyf1ONS_19transaction_service9use_cases19process_transaction5tests58___mock_MockTransactionRepositoryImpl_TransactionRepository12___find_by_idNtB6_11Expectation15return_const_stpEBg_
FN:139,_RINvMs6_NtNtNtNtNtCshYfsMyf1ONS_19transaction_service9use_cases19process_transaction5tests58___mock_MockTransactionRepositoryImpl_TransactionRepository12___find_by_idNtB6_11Expectation4withpEBg_
FN:139,_RINvMs6_NtNtNtNtNtCshYfsMyf1ONS_19transaction_service9use_cases19process_transaction5tests58___mock_MockTransactionRepositoryImpl_TransactionRepository12___find_by_idNtB6_11Expectation5timespEBg_
FN:139,_RINvMs6_NtNtNtNtNtCshYfsMyf1ONS_19transaction_service9use_cases19process_transaction5tests58___mock_MockTransactionRepositoryImpl_TransactionRepository12___find_by_idNtB6_11Expectation5withfpEBg_
FN:139,_RINvMs6_NtNtNtNtNtCshYfsMyf1ONS_19transaction_service9use_cases19process_transaction5tests58___mock_MockTransactionRepositoryImpl_TransactionRepository12___find_by_idNtB6_11Expectation8withf_stpEBg_
FN:139,_RINvMs6_NtNtNtNtNtCshYfsMyf1ONS_19transaction_service9use_cases19process_transaction5tests58___mock_MockTransactionRepositoryImpl_TransactionRepository12___find_by_idNtB6_11Expectation9returningpEBg_
FN:139,_RINvMs6_NtNtNtNtNtCshYfsMyf1ONS_19transaction_service9use_cases19process_transaction5tests58___mock_MockTransactionRepositoryImpl_TransactionRepository19___find_by_wallet_idNtB6_11Expectation11return_oncepEBg_
FN:139,_RINvMs6_NtNtNtNtNtCshYfsMyf1ONS_19transaction_service9use_cases19process_transaction5tests58___mock_MockTransactionRepositoryImpl_TransactionRepository19___find_by_wallet_idNtB6_11Expectation12return_constpEBg_
FN:139,_RINvMs6_NtNtNtNtNtCshYfsMyf1ONS_19transaction_service9use_cases19process_transaction5tests58___mock_MockTransactionRepositoryImpl_TransactionRepository19___find_by_wallet_idNtB6_11Expectation12returning_stpEBg_
FN:139,_RINvMs6_NtNtNtNtNtCshYfsMyf1ONS_19transaction_service9use_cases19process_transaction5tests58___mock_MockTransactionRepositoryImpl_TransactionRepository19___find_by_wallet_idNtB6_11Expectation14return_once_stpEBg_
FN:139,_RINvMs6_NtNtNtNtNtCshYfsMyf1ONS_19transaction_service9use_cases19process_transaction5tests58___mock_MockTransactionRepositoryImpl_TransactionRepository19___find_by_wallet_idNtB6_11Expectation15return_const_stpEBg_
FN:139,_RINvMs6_NtNtNtNtNtCshYfsMyf1ONS_19transaction_service9use_cases19process_transaction5tests58___mock_MockTransactionRepositoryImpl_TransactionRepository19___find_by_wallet_idNtB6_11Expectation4withpEBg_
FN:139,_RINvMs6_NtNtNtNtNtCshYfsMyf1ONS_19transaction_service9use_cases19process_transaction5tests58___mock_MockTransactionRepositoryImpl_TransactionRepository19___find_by_wallet_idNtB6_11Expectation5timespEBg_
FN:139,_RINvMs6_NtNtNtNtNtCshYfsMyf1ONS_19transaction_service9use_cases19process_transaction5tests58___mock_MockTransactionRepositoryImpl_TransactionRepository19___find_by_wallet_idNtB6_11Expectation5withfpEBg_
FN:139,_RINvMs6_NtNtNtNtNtCshYfsMyf1ONS_19transaction_service9use_cases19process_transaction5tests58___mock_MockTransactionRepositoryImpl_TransactionRepository19___find_by_wallet_idNtB6_11Expectation8withf_stpEBg_
FN:139,_RINvMs6_NtNtNtNtNtCshYfsMyf1ONS_19transaction_service9use_cases19process_transaction5tests58___mock_MockTransactionRepositoryImpl_TransactionRepository19___find_by_wallet_idNtB6_11Expectation9returningpEBg_
FN:139,_RINvMs6_NtNtNtNtNtCshYfsMyf1ONS_19transaction_service9use_cases19process_transaction5tests58___mock_MockTransactionRepositoryImpl_TransactionRepository24___find_by_correlation_idNtB6_11Expectation11return_oncepEBg_
FN:139,_RINvMs6_NtNtNtNtNtCshYfsMyf1ONS_19transaction_service9use_cases19process_transaction5tests58___mock_MockTransactionRepositoryImpl_TransactionRepository24___find_by_correlation_idNtB6_11Expectation12return_constpEBg_
FN:139,_RINvMs6_NtNtNtNtNtCshYfsMyf1ONS_19transaction_service9use_cases19process_transaction5tests58___mock_MockTransactionRepositoryImpl_TransactionRepository24___find_by_correlation_idNtB6_11Expectation12returning_stpEBg_
FN:139,_RINvMs6_NtNtNtNtNtCshYfsMyf1ONS_19transaction_service9use_cases19process_transaction5tests58___mock_MockTransactionRepositoryImpl_TransactionRepository24___find_by_correlation_idNtB6_11Expectation14return_once_stpEBg_
FN:139,_RINvMs6_NtNtNtNtNtCshYfsMyf1ONS_19transaction_service9use_cases19process_transaction5tests58___mock_MockTransactionRepositoryImpl_TransactionRepository24___find_by_correlation_idNtB6_11Expectation15return_const_stpEBg_
FN:139,_RINvMs6_NtNtNtNtNtCshYfsMyf1ONS_19transaction_service9use_cases19process_transaction5tests58___mock_MockTransactionRepositoryImpl_TransactionRepository24___find_by_correlation_idNtB6_11Expectation5withfpEBg_
FN:139,_RINvMs6_NtNtNtNtNtCshYfsMyf1ONS_19transaction_service9use_cases19process_transaction5tests58___mock_MockTransactionRepositoryImpl_TransactionRepository24___find_by_correlation_idNtB6_11Expectation8withf_stpEBg_
FN:139,_RINvMs6_NtNtNtNtNtCshYfsMyf1ONS_19transaction_service9use_cases19process_transaction5tests58___mock_MockTransactionRepositoryImpl_TransactionRepository25___find_pending_older_thanNtB6_11Expectation11return_oncepEBg_
FN:139,_RINvMs6_NtNtNtNtNtCshYfsMyf1ONS_19transaction_service9use_cases19process_transaction5tests58___mock_MockTransactionRepositoryImpl_TransactionRepository25___find_pending_older_thanNtB6_11Expectation12return_constpEBg_
FN:139,_RINvMs6_NtNtNtNtNtCshYfsMyf1ONS_19transaction_service9use_cases19process_transaction5tests58___mock_MockTransactionRepositoryImpl_TransactionRepository25___find_pending_older_thanNtB6_11Expectation12returning_stpEBg_
FN:139,_RINvMs6_NtNtNtNtNtCshYfsMyf1ONS_19transaction_service9use_cases19process_transaction5tests58___mock_MockTransactionRepositoryImpl_TransactionRepository25___find_pending_older_thanNtB6_11Expectation14return_once_stpEBg_
FN:139,_RINvMs6_NtNtNtNtNtCshYfsMyf1ONS_19transaction_service9use_cases19process_transaction5tests58___mock_MockTransactionRepositoryImpl_TransactionRepository25___find_pending_older_thanNtB6_11Expectation15return_const_stpEBg_
FN:139,_RINvMs6_NtNtNtNtNtCshYfsMyf1ONS_19transaction_service9use_cases19process_transaction5tests58___mock_MockTransactionRepositoryImpl_TransactionRepository25___find_pending_older_thanNtB6_11Expectation4withpEBg_
FN:139,_RINvMs6_NtNtNtNtNtCshYfsMyf1ONS_19transaction_service9use_cases19process_transaction5tests58___mock_MockTransactionRepositoryImpl_TransactionRepository25___find_pending_older_thanNtB6_11Expectation5timespEBg_
FN:139,_RINvMs6_NtNtNtNtNtCshYfsMyf1ONS_19transaction_service9use_cases19process_transaction5tests58___mock_MockTransactionRepositoryImpl_TransactionRepository25___find_pending_older_thanNtB6_11Expectation5withfpEBg_
FN:139,_RINvMs6_NtNtNtNtNtCshYfsMyf1ONS_19transaction_service9use_cases19process_transaction5tests58___mock_MockTransactionRepositoryImpl_TransactionRepository25___find_pending_older_thanNtB6_11Expectation8withf_stpEBg_
FN:139,_RINvMs6_NtNtNtNtNtCshYfsMyf1ONS_19transaction_service9use_cases19process_transaction5tests58___mock_MockTransactionRepositoryImpl_TransactionRepository25___find_pending_older_thanNtB6_11Expectation9returningpEBg_
FN:139,_RINvMs6_NtNtNtNtNtCshYfsMyf1ONS_19transaction_service9use_cases19process_transaction5tests58___mock_MockTransactionRepositoryImpl_TransactionRepository6___saveNtB6_11Expectation11return_oncepEBg_
FN:139,_RINvMs6_NtNtNtNtNtCshYfsMyf1ONS_19transaction_service9use_cases19process_transaction5tests58___mock_MockTransactionRepositoryImpl_TransactionRepository6___saveNtB6_11Expectation12return_constpEBg_
FN:139,_RINvMs6_NtNtNtNtNtCshYfsMyf1ONS_19transaction_service9use_cases19process_transaction5tests58___mock_MockTransactionRepositoryImpl_TransactionRepository6___saveNtB6_11Expectation12returning_stpEBg_
FN:139,_RINvMs6_NtNtNtNtNtCshYfsMyf1ONS_19transaction_service9use_cases19process_transaction5tests58___mock_MockTransactionRepositoryImpl_TransactionRepository6___saveNtB6_11Expectation14return_once_stpEBg_
FN:139,_RINvMs6_NtNtNtNtNtCshYfsMyf1ONS_19transaction_service9use_cases19process_transaction5tests58___mock_MockTransactionRepositoryImpl_TransactionRepository6___saveNtB6_11Expectation15return_const_stpEBg_
FN:139,_RINvMs6_NtNtNtNtNtCshYfsMyf1ONS_19transaction_service9use_cases19process_transaction5tests58___mock_MockTransactionRepositoryImpl_TransactionRepository6___saveNtB6_11Expectation4withpEBg_
FN:139,_RINvMs6_NtNtNtNtNtCshYfsMyf1ONS_19transaction_service9use_cases19process_transaction5tests58___mock_MockTransactionRepositoryImpl_TransactionRepository6___saveNtB6_11Expectation5withfpEBg_
FN:139,_RINvMs6_NtNtNtNtNtCshYfsMyf1ONS_19transaction_service9use_cases19process_transaction5tests58___mock_MockTransactionRepositoryImpl_TransactionRepository6___saveNtB6_11Expectation8withf_stpEBg_
FN:139,_RINvMs6_NtNtNtNtNtCshYfsMyf1ONS_19transaction_service9use_cases19process_transaction5tests58___mock_MockTransactionRepositoryImpl_TransactionRepository8___updateNtB6_11Expectation11return_oncepEBg_
FN:139,_RINvMs6_NtNtNtNtNtCshYfsMyf1ONS_19transaction_service9use_cases19process_transaction5tests58___mock_MockTransactionRepositoryImpl_TransactionRepository8___updateNtB6_11Expectation12return_constpEBg_
FN:139,_RINvMs6_NtNtNtNtNtCshYfsMyf1ONS_19transaction_service9use_cases19process_transaction5tests58___mock_MockTransactionRepositoryImpl_TransactionRepository8___updateNtB6_11Expectation12returning_stpEBg_
FN:139,_RINvMs6_NtNtNtNtNtCshYfsMyf1ONS_19transaction_service9use_cases19process_transaction5tests58___mock_MockTransactionRepositoryImpl_TransactionRepository8___updateNtB6_11Expectation14return_once_stpEBg_
FN:139,_RINvMs6_NtNtNtNtNtCshYfsMyf1ONS_19transaction_service9use_cases19process_transaction5tests58___mock_MockTransactionRepositoryImpl_TransactionRepository8___updateNtB6_11Expectation15return_const_stpEBg_
FN:139,_RINvMs6_NtNtNtNtNtCshYfsMyf1ONS_19transaction_service9use_cases19process_transaction5tests58___mock_MockTransactionRepositoryImpl_TransactionRepository8___updateNtB6_11Expectation5withfpEBg_
FN:139,_RINvMs6_NtNtNtNtNtCshYfsMyf1ONS_19transaction_service9use_cases19process_transaction5tests58___mock_MockTransactionRepositoryImpl_TransactionRepository8___updateNtB6_11Expectation8withf_stpEBg_
FN:148,_RNCINvMs6_NtNtNtNtNtCshYfsMyf1ONS_19transaction_service9use_cases19process_transaction5tests42___mock_MockWalletGatewayImpl_WalletGateway18___process_movementNtB8_11Expectation12return_constpE0Bi_
FN:148,_RNCINvMs6_NtNtNtNtNtCshYfsMyf1ONS_19transaction_service9use_cases19process_transaction5tests42___mock_MockWalletGatewayImpl_WalletGateway18___process_movementNtB8_11Expectation15return_const_stpE0Bi_
FN:139,_RNCINvMs6_NtNtNtNtNtCshYfsMyf1ONS_19transaction_service9use_cases19process_transaction5tests58___mock_MockTransactionRepositoryImpl_TransactionRepository12___find_by_idNtB8_11Expectation12return_constpE0Bi_
FN:139,_RNCINvMs6_NtNtNtNtNtCshYfsMyf1ONS_19transaction_service9use_cases19process_transaction5tests58___mock_MockTransactionRepositoryImpl_TransactionRepository12___find_by_idNtB8_11Expectation15return_const_stpE0Bi_
FN:139,_RNCINvMs6_NtNtNtNtNtCshYfsMyf1ONS_19transaction_service9use_cases19process_transaction5tests58___mock_MockTransactionRepositoryImpl_TransactionRepository19___find_by_wallet_idNtB8_11Expectation12return_constpE0Bi_
FN:139,_RNCINvMs6_NtNtNtNtNtCshYfsMyf1ONS_19transaction_service9use_cases19process_transaction5tests58___mock_MockTransactionRepositoryImpl_TransactionRepository19___find_by_wallet_idNtB8_11Expectation15return_const_stpE0Bi_
FN:139,_RNCINvMs6_NtNtNtNtNtCshYfsMyf1ONS_19transaction_service9use_cases19process_transaction5tests58___mock_MockTransactionRepositoryImpl_TransactionRepository24___find_by_correlation_idNtB8_11Expectation12return_constpE0Bi_
FN:139,_RNCINvMs6_NtNtNtNtNtCshYfsMyf1ONS_19transaction_service9use_cases19process_transaction5tests58___mock_MockTransactionRepositoryImpl_TransactionRepository24___find_by_correlation_idNtB8_11Expectation15return_const_stpE0Bi_
FN:139,_RNCINvMs6_NtNtNtNtNtCshYfsMyf1ONS_19transaction_service9use_cases19process_transaction5tests58___mock_MockTransactionRepositoryImpl_TransactionRepository25___find_pending_older_thanNtB8_11Expectation12return_constpE0Bi_
FN:139,_RNCINvMs6_NtNtNtNtNtCshYfsMyf1ONS_19transaction_service9use_cases19process_transaction5tests58___mock_MockTransactionRepositoryImpl_TransactionRepository25___find_pending_older_thanNtB8_11Expectation15return_const_stpE0Bi_
FN:139,_RNCINvMs6_NtNtNtNtNtCshYfsMyf1ONS_19transaction_service9use_cases19process_transaction5tests58___mock_MockTransactionRepositoryImpl_TransactionRepository6___saveNtB8_11Expectation12return_constpE0Bi_
FN:139,_RNCINvMs6_NtNtNtNtNtCshYfsMyf1ONS_19transaction_service9use_cases19process_transaction5tests58___mock_MockTransactionRepositoryImpl_TransactionRepository6___saveNtB8_11Expectation15return_const_stpE0Bi_
FN:139,_RNCINvMs6_NtNtNtNtNtCshYfsMyf1ONS_19transaction_service9use_cases19process_transaction5tests58___mock_MockTransactionRepositoryImpl_TransactionRepository8___updateNtB8_11Expectation12return_constpE0Bi_
FN:139,_RNCINvMs6_NtNtNtNtNtCshYfsMyf1ONS_19transaction_service9use_cases19process_transaction5tests58___mock_MockTransactionRepositoryImpl_TransactionRepository8___updateNtB8_11Expectation15return_const_stpE0Bi_
FN:139,_RNvMs0_NtNtNtCshYfsMyf1ONS_19transaction_service9use_cases19process_transaction5testsNtB5_51MockTransactionRepositoryImpl_TransactionRepository10checkpoint
FN:139,_RNvMs1_NtNtNtCshYfsMyf1ONS_19transaction_service9use_cases19process_transaction5testsNtB5_29MockTransactionRepositoryImpl10checkpoint
FN:139,_RNvMs2_NtNtNtCshYfsMyf1ONS_19transaction_service9use_cases19process_transaction5testsNtB5_29MockTransactionRepositoryImpl17expect_find_by_id
FN:139,_RNvMs2_NtNtNtCshYfsMyf1ONS_19transaction_service9use_cases19process_transaction5testsNtB5_29MockTransactionRepositoryImpl24expect_find_by_wallet_id
FN:139,_RNvMs2_NtNtNtCshYfsMyf1ONS_19transaction_service9use_cases19process_transaction5testsNtB5_29MockTransactionRepositoryImpl30expect_find_pending_older_than
FN:148,_RNvMs4_NtNtNtNtNtCshYfsMyf1ONS_19transaction_service9use_cases19process_transaction5tests42___mock_MockWalletGatewayImpl_WalletGateway18___process_movementNtB5_6Common11in_sequence
FN:148,_RNvMs4_NtNtNtNtNtCshYfsMyf1ONS_19transaction_service9use_cases19process_transaction5tests42___mock_MockWalletGatewayImpl_WalletGateway18___process_movementNtB5_6Common5never
FN:139,_RNvMs4_NtNtNtNtNtCshYfsMyf1ONS_19transaction_service9use_cases19process_transaction5tests58___mock_MockTransactionRepositoryImpl_TransactionRepository12___find_by_idNtB5_6Common11in_sequence
FN:139,_RNvMs4_NtNtNtNtNtCshYfsMyf1ONS_19transaction_service9use_cases19process_transaction5tests58___mock_MockTransactionRepositoryImpl_TransactionRepository12___find_by_idNtB5_6Common5never
FN:139,_RNvMs4_NtNtNtNtNtCshYfsMyf1ONS_19transaction_service9use_cases19process_transaction5tests58___mock_MockTransactionRepositoryImpl_TransactionRepository19___find_by_wallet_idNtB5_6Common11in_sequence
FN:139,_RNvMs4_NtNtNtNtNtCshYfsMyf1ONS_19transaction_service9use_cases19process_transaction5tests58___mock_MockTransactionRepositoryImpl_TransactionRepository19___find_by_wallet_idNtB5_6Common5never
FN:139,_RNvMs4_NtNtNtNtNtCshYfsMyf1ONS_19transaction_service9use_cases19process_transaction5tests58___mock_MockTransactionRepositoryImpl_TransactionRepository24___find_by_correlation_idNtB5_6Common11in_sequence
FN:139,_RNvMs4_NtNtNtNtNtCshYfsMyf1ONS_19transaction_service9use_cases19process_transaction5tests58___mock_MockTransactionRepositoryImpl_TransactionRepository24___find_by_correlation_idNtB5_6Common5never
FN:139,_RNvMs4_NtNtNtNtNtCshYfsMyf1ONS_19transaction_service9use_cases19process_transaction5tests58___mock_MockTransactionRepositoryImpl_TransactionRepository25___find_pending_older_thanNtB5_6Common11in_sequence
FN:139,_RNvMs4_NtNtNtNtNtCshYfsMyf1ONS_19transaction_service9use_cases19process_transaction5tests58___mock_MockTransactionRepositoryImpl_TransactionRepository25___find_pending_older_thanNtB5_6Common5never
FN:139,_RNvMs4_NtNtNtNtNtCshYfsMyf1ONS_19transaction_service9use_cases19process_transaction5tests58___mock_MockTransactionRepositoryImpl_TransactionRepository6___saveNtB5_6Common11in_sequence
FN:139,_RNvMs4_NtNtNtNtNtCshYfsMyf1ONS_19transaction_service9use_cases19process_transaction5tests58___mock_MockTransactionRepositoryImpl_TransactionRepository6___saveNtB5_6Common5never
FN:139,_RNvMs4_NtNtNtNtNtCshYfsMyf1ONS_19transaction_service9use_cases19process_transaction5tests58___mock_MockTransactionRepositoryImpl_TransactionRepository8___updateNtB5_6Common11in_sequence
FN:139,_RNvMs4_NtNtNtNtNtCshYfsMyf1ONS_19transaction_service9use_cases19process_transaction5tests58___mock_MockTransactionRepositoryImpl_TransactionRepository8___updateNtB5_6Common5never
FN:148,_RNvMs6_NtNtNtCshYfsMyf1ONS_19transaction_service9use_cases19process_transaction5testsNtB5_35MockWalletGatewayImpl_WalletGateway10checkpoint
FN:148,_RNvMs6_NtNtNtNtNtCshYfsMyf1ONS_19transaction_service9use_cases19process_transaction5tests42___mock_MockWalletGatewayImpl_WalletGateway18___process_movementNtB5_11Expectation11in_sequence
FN:148,_RNvMs6_NtNtNtNtNtCshYfsMyf1ONS_19transaction_service9use_cases19process_transaction5tests42___mock_MockWalletGatewayImpl_WalletGateway18___process_movementNtB5_11Expectation3new
FN:148,_RNvMs6_NtNtNtNtNtCshYfsMyf1ONS_19transaction_service9use_cases19process_transaction5tests42___mock_MockWalletGatewayImpl_WalletGateway18___process_movementNtB5_11Expectation4once
FN:148,_RNvMs6_NtNtNtNtNtCshYfsMyf1ONS_19transaction_service9use_cases19process_transaction5tests42___mock_MockWalletGatewayImpl_WalletGateway18___process_movementNtB5_11Expectation5never
FN:139,_RNvMs6_NtNtNtNtNtCshYfsMyf1ONS_19transaction_service9use_cases19process_transaction5tests58___mock_MockTransactionRepositoryImpl_TransactionRepository12___find_by_idNtB5_11Expectation11in_sequence
FN:139,_RNvMs6_NtNtNtNtNtCshYfsMyf1ONS_19transaction_service9use_cases19process_transaction5tests58___mock_MockTransactionRepositoryImpl_TransactionRepository12___find_by_idNtB5_11Expectation3new
FN:139,_RNvMs6_NtNtNtNtNtCshYfsMyf1ONS_19transaction_service9use_cases19process_transaction5tests58___mock_MockTransactionRepositoryImpl_TransactionRepository12___find_by_idNtB5_11Expectation4once
FN:139,_RNvMs6_NtNtNtNtNtCshYfsMyf1ONS_19transaction_service9use_cases19process_transaction5tests58___mock_MockTransactionRepositoryImpl_TransactionRepository12___find_by_idNtB5_11Expectation5never
FN:139,_RNvMs6_NtNtNtNtNtCshYfsMyf1ONS_19transaction_service9use_cases19process_transaction5tests58___mock_MockTransactionRepositoryImpl_TransactionRepository19___find_by_wallet_idNtB5_11Expectation11in_sequence
FN:139,_RNvMs6_NtNtNtNtNtCshYfsMyf1ONS_19transaction_service9use_cases19process_transaction5tests58___mock_MockTransactionRepositoryImpl_TransactionRepository19___find_by_wallet_idNtB5_11Expectation3new
FN:139,_RNvMs6_NtNtNtNtNtCshYfsMyf1ONS_19transaction_service9use_cases19process_transaction5tests58___mock_MockTransactionRepositoryImpl_TransactionRepository19___find_by_wallet_idNtB5_11Expectation4once
FN:139,_RNvMs6_NtNtNtNtNtCshYfsMyf1ONS_19transaction_service9use_cases19process_transaction5tests58___mock_MockTransactionRepositoryImpl_TransactionRepository19___find_by_wallet_idNtB5_11Expectation5never
FN:139,_RNvMs6_NtNtNtNtNtCshYfsMyf1ONS_19transaction_service9use_cases19process_transaction5tests58___mock_MockTransactionRepositoryImpl_TransactionRepository24___find_by_correlation_idNtB5_11Expectation11in_sequence
FN:139,_RNvMs6_NtNtNtNtNtCshYfsMyf1ONS_19transaction_service9use_cases19process_transaction5tests58___mock_MockTransactionRepositoryImpl_TransactionRepository24___find_by_correlation_idNtB5_11Expectation3new
FN:139,_RNvMs6_NtNtNtNtNtCshYfsMyf1ONS_19transaction_service9use_cases19process_transaction5tests58___mock_MockTransactionRepositoryImpl_TransactionRepository24___find_by_correlation_idNtB5_11Expectation4once
FN:139,_RNvMs6_NtNtNtNtNtCshYfsMyf1ONS_19transaction_service9use_cases19process_transaction5tests58___mock_MockTransactionRepositoryImpl_TransactionRepository24___find_by_correlation_idNtB5_11Expectation5never
FN:139,_RNvMs6_NtNtNtNtNtCshYfsMyf1ONS_19transaction_service9use_cases19process_transaction5tests58___mock_MockTransactionRepositoryImpl_TransactionRepository25___find_pending_older_thanNtB5_11Expectation11in_sequence
FN:139,_RNvMs6_NtNtNtNtNtCshYfsMyf1ONS_19transaction_service9use_cases19process_transaction5tests58___mock_MockTransactionRepositoryImpl_TransactionRepository25___find_pending_older_thanNtB5_11Expectation3new
FN:139,_RNvMs6_NtNtNtNtNtCshYfsMyf1ONS_19transaction_service9use_cases19process_transaction5tests58___mock_MockTransactionRepositoryImpl_TransactionRepository25___find_pending_older_thanNtB5_11Expectation4once
FN:139,_RNvMs6_NtNtNtNtNtCshYfsMyf1ONS_19transaction_service9use_cases19process_transaction5tests58___mock_MockTransactionRepositoryImpl_TransactionRepository25___find_pending_older_thanNtB5_11Expectation5never
FN:139,_RNvMs6_NtNtNtNtNtCshYfsMyf1ONS_19transaction_service9use_cases19process_transaction5tests58___mock_MockTransactionRepositoryImpl_TransactionRepository6___saveNtB5_11Expectation11in_sequence
FN:139,_RNvMs6_NtNtNtNtNtCshYfsMyf1ONS_19transaction_service9use_cases19process_transaction5tests58___mock_MockTransactionRepositoryImpl_TransactionRepository6___saveNtB5_11Expectation3new
FN:139,_RNvMs6_NtNtNtNtNtCshYfsMyf1ONS_19transaction_service9use_cases19process_transaction5tests58___mock_MockTransactionRepositoryImpl_TransactionRepository6___saveNtB5_11Expectation4once
FN:139,_RNvMs6_NtNtNtNtNtCshYfsMyf1ONS_19transaction_service9use_cases19process_transaction5tests58___mock_MockTransactionRepositoryImpl_TransactionRepository6___saveNtB5_11Expectation5never
FN:139,_RNvMs6_NtNtNtNtNtCshYfsMyf1ONS_19transaction_service9use_cases19process_transaction5tests58___mock_MockTransactionRepositoryImpl_TransactionRepository8___updateNtB5_11Expectation11in_sequence
FN:139,_RNvMs6_NtNtNtNtNtCshYfsMyf1ONS_19transaction_service9use_cases19process_transaction5tests58___mock_MockTransactionRepositoryImpl_TransactionRepository8___updateNtB5_11Expectation3new
FN:139,_RNvMs6_NtNtNtNtNtCshYfsMyf1ONS_19transaction_service9use_cases19process_transaction5tests58___mock_MockTransactionRepositoryImpl_TransactionRepository8___updateNtB5_11Expectation4once
FN:139,_RNvMs6_NtNtNtNtNtCshYfsMyf1ONS_19transaction_service9use_cases19process_transaction5tests58___mock_MockTransactionRepositoryImpl_TransactionRepository8___updateNtB5_11Expectation5never
FN:148,_RNvMs7_NtNtNtCshYfsMyf1ONS_19transaction_service9use_cases19process_transaction5testsNtB5_21MockWalletGatewayImpl10checkpoint
FN:148,_RNvMs8_NtNtNtNtNtCshYfsMyf1ONS_19transaction_service9use_cases19process_transaction5tests42___mock_MockWalletGatewayImpl_WalletGateway18___process_movementNtB5_12Expectations10checkpoint
FN:139,_RNvMs8_NtNtNtNtNtCshYfsMyf1ONS_19transaction_service9use_cases19process_transaction5tests58___mock_MockTransactionRepositoryImpl_TransactionRepository12___find_by_idNtB5_12Expectations10checkpoint
FN:139,_RNvMs8_NtNtNtNtNtCshYfsMyf1ONS_19transaction_service9use_cases19process_transaction5tests58___mock_MockTransactionRepositoryImpl_TransactionRepository12___find_by_idNtB5_12Expectations6expect
FN:139,_RNvMs8_NtNtNtNtNtCshYfsMyf1ONS_19transaction_service9use_cases19process_transaction5tests58___mock_MockTransactionRepositoryImpl_TransactionRepository19___find_by_wallet_idNtB5_12Expectations10checkpoint
FN:139,_RNvMs8_NtNtNtNtNtCshYfsMyf1ONS_19transaction_service9use_cases19process_transaction5tests58___mock_MockTransactionRepositoryImpl_TransactionRepository19___find_by_wallet_idNtB5_12Expectations6expect
FN:139,_RNvMs8_NtNtNtNtNtCshYfsMyf1ONS_19transaction_service9use_cases19process_transaction5tests58___mock_MockTransactionRepositoryImpl_TransactionRepository24___find_by_correlation_idNtB5_12Expectations10checkpoint
FN:139,_RNvMs8_NtNtNtNtNtCshYfsMyf1ONS_19transaction_service9use_cases19process_transaction5tests58___mock_MockTransactionRepositoryImpl_TransactionRepository25___find_pending_older_thanNtB5_12Expectations10checkpoint
FN:139,_RNvMs8_NtNtNtNtNtCshYfsMyf1ONS_19transaction_service9use_cases19process_transaction5tests58___mock_MockTransactionRepositoryImpl_TransactionRepository25___find_pending_older_thanNtB5_12Expectations6expect
FN:139,_RNvMs8_NtNtNtNtNtCshYfsMyf1ONS_19transaction_service9use_cases19process_transaction5tests58___mock_MockTransactionRepositoryImpl_TransactionRepository6___saveNtB5_12Expectations10checkpoint
FN:139,_RNvMs8_NtNtNtNtNtCshYfsMyf1ONS_19transaction_service9use_cases19process_transaction5tests58___mock_MockTransactionRepositoryImpl_TransactionRepository8___updateNtB5_12Expectations10checkpoint
FN:139,_RNvXs1_NtNtNtNtNtCshYfsMyf1ONS_19transaction_service9use_cases19process_transaction5tests58___mock_MockTransactionRepositoryImpl_TransactionRepository12___find_by_idNtB5_7MatcherNtNtCs8CEGv8KHL4Y_4core7default7Default7default
FN:139,_RNvXs1_NtNtNtNtNtCshYfsMyf1ONS_19transaction_service9use_cases19process_transaction5tests58___mock_MockTransactionRepositoryImpl_TransactionRepository19___find_by_wallet_idNtB5_7MatcherNtNtCs8CEGv8KHL4Y_4core7default7Default7default
FN:139,_RNvXs1_NtNtNtNtNtCshYfsMyf1ONS_19transaction_service9use_cases19process_transaction5tests58___mock_MockTransactionRepositoryImpl_TransactionRepository25___find_pending_older_thanNtB5_7MatcherNtNtCs8CEGv8KHL4Y_4core7default7Default7default
FN:139,_RNvXs3_NtNtNtNtNtCshYfsMyf1ONS_19transaction_service9use_cases19process_transaction5tests58___mock_MockTransactionRepositoryImpl_TransactionRepository12___find_by_idNtB5_6CommonNtNtCs8CEGv8KHL4Y_4core7default7Default7default
FN:139,_RNvXs3_NtNtNtNtNtCshYfsMyf1ONS_19transaction_service9use_cases19process_transaction5tests58___mock_MockTransactionRepositoryImpl_TransactionRepository19___find_by_wallet_idNtB5_6CommonNtNtCs8CEGv8KHL4Y_4core7default7Default7default
FN:139,_RNvXs3_NtNtNtNtNtCshYfsMyf1ONS_19transaction_service9use_cases19process_transaction5tests58___mock_MockTransactionRepositoryImpl_TransactionRepository25___find_pending_older_thanNtB5_6CommonNtNtCs8CEGv8KHL4Y_4core7default7Default7default
FN:139,_RNvXs7_NtNtNtNtNtCshYfsMyf1ONS_19transaction_service9use_cases19process_transaction5tests58___mock_MockTransactionRepositoryImpl_TransactionRepository12___find_by_idNtB5_11ExpectationNtNtCs8CEGv8KHL4Y_4core7default7Default7default
FN:139,_RNvXs7_NtNtNtNtNtCshYfsMyf1ONS_19transaction_service9use_cases19process_transaction5tests58___mock_MockTransactionRepositoryImpl_TransactionRepository19___find_by_wallet_idNtB5_11ExpectationNtNtCs8CEGv8KHL4Y_4core7default7Default7default
FN:139,_RNvXs7_NtNtNtNtNtCshYfsMyf1ONS_19transaction_service9use_cases19process_transaction5tests58___mock_MockTransactionRepositoryImpl_TransactionRepository25___find_pending_older_thanNtB5_11ExpectationNtNtCs8CEGv8KHL4Y_4core7default7Default7default
FN:139,_RNvXs_NtNtNtNtNtCshYfsMyf1ONS_19transaction_service9use_cases19process_transaction5tests58___mock_MockTransactionRepositoryImpl_TransactionRepository12___find_by_idNtB4_5RfuncNtNtCs8CEGv8KHL4Y_4core7default7Default7default
FN:139,_RNvXs_NtNtNtNtNtCshYfsMyf1ONS_19transaction_service9use_cases19process_transaction5tests58___mock_MockTransactionRepositoryImpl_TransactionRepository19___find_by_wallet_idNtB4_5RfuncNtNtCs8CEGv8KHL4Y_4core7default7Default7default
FN:139,_RNvXs_NtNtNtNtNtCshYfsMyf1ONS_19transaction_service9use_cases19process_transaction5tests58___mock_MockTransactionRepositoryImpl_TransactionRepository25___find_pending_older_thanNtB4_5RfuncNtNtCs8CEGv8KHL4Y_4core7default7Default7default
FN:139,_RNvMNtNtNtNtNtCshYfsMyf1ONS_19transaction_service9use_cases19process_transaction5tests58___mock_MockTransactionRepositoryImpl_TransactionRepository19___find_by_wallet_idNtB2_5Rfunc8call_mut
FN:139,_RNvMs0_NtNtNtNtNtCshYfsMyf1ONS_19transaction_service9use_cases19process_transaction5tests58___mock_MockTransactionRepositoryImpl_TransactionRepository19___find_by_wallet_idNtB5_7Matcher7matches
FN:139,_RNvMs4_NtNtNtNtNtCshYfsMyf1ONS_19transaction_service9use_cases19process_transaction5tests58___mock_MockTransactionRepositoryImpl_TransactionRepository19___find_by_wallet_idNtB5_6Common15called_sequence
FN:139,_RNvMs4_NtNtNtNtNtCshYfsMyf1ONS_19transaction_service9use_cases19process_transaction5tests58___mock_MockTransactionRepositoryImpl_TransactionRepository19___find_by_wallet_idNtB5_6Common16satisfy_sequence
FN:139,_RNvMs4_NtNtNtNtNtCshYfsMyf1ONS_19transaction_service9use_cases19process_transaction5tests58___mock_MockTransactionRepositoryImpl_TransactionRepository19___find_by_wallet_idNtB5_6Common19is_history_sequence
FN:139,_RNvMs4_NtNtNtNtNtCshYfsMyf1ONS_19transaction_service9use_cases19process_transaction5tests58___mock_MockTransactionRepositoryImpl_TransactionRepository19___find_by_wallet_idNtB5_6Common7is_done
FN:139,_RNvMs4_NtNtNtNtNtCshYfsMyf1ONS_19transaction_service9use_cases19process_transaction5tests58___mock_MockTransactionRepositoryImpl_TransactionRepository19___find_by_wallet_idNtB5_6Common7matches
FN:139,_RNvMs6_NtNtNtNtNtCshYfsMyf1ONS_19transaction_service9use_cases19process_transaction5tests58___mock_MockTransactionRepositoryImpl_TransactionRepository19___find_by_wallet_idNtB5_11Expectation4call
FN:139,_RNvMs6_NtNtNtNtNtCshYfsMyf1ONS_19transaction_service9use_cases19process_transaction5tests58___mock_MockTransactionRepositoryImpl_TransactionRepository19___find_by_wallet_idNtB5_11Expectation7is_done
FN:139,_RNvMs6_NtNtNtNtNtCshYfsMyf1ONS_19transaction_service9use_cases19process_transaction5tests58___mock_MockTransactionRepositoryImpl_TransactionRepository19___find_by_wallet_idNtB5_11Expectation7matches
FN:139,_RNvMs8_NtNtNtNtNtCshYfsMyf1ONS_19transaction_service9use_cases19process_transaction5tests58___mock_MockTransactionRepositoryImpl_TransactionRepository19___find_by_wallet_idNtB5_12Expectations3new
FN:139,_RNvMsa_NtNtNtNtNtCshYfsMyf1ONS_19transaction_service9use_cases19process_transaction5tests58___mock_MockTransactionRepositoryImpl_TransactionRepository19___find_by_wallet_idNtB5_12Expectations4call
FN:139,_RNvXs2_NtNtNtNtNtCshYfsMyf1ONS_19transaction_service9use_cases19process_transaction5tests58___mock_MockTransactionRepositoryImpl_TransactionRepository19___find_by_wallet_idNtB5_7MatcherNtNtCs8CEGv8KHL4Y_4core3fmt7Display3fmt
FN:139,_RNvXs9_NtNtNtNtNtCshYfsMyf1ONS_19transaction_service9use_cases19process_transaction5tests58___mock_MockTransactionRepositoryImpl_TransactionRepository19___find_by_wallet_idNtB5_12ExpectationsNtNtCs8CEGv8KHL4Y_4core7default7Default7default
FN:139,_RINvMs4_NtNtNtNtNtCshYfsMyf1ONS_19transaction_service9use_cases19process_transaction5tests58___mock_MockTransactionRepositoryImpl_TransactionRepository12___find_by_idNtB6_6Common15verify_sequenceNCNvMs6_B6_NtB6_11Expectation4call0EBg_
FN:139,_RINvMs4_NtNtNtNtNtCshYfsMyf1ONS_19transaction_service9use_cases19process_transaction5tests58___mock_MockTransactionRepositoryImpl_TransactionRepository12___find_by_idNtB6_6Common4callNCNvMs6_B6_NtB6_11Expectation4call0EBg_
FN:127,_RNCINvMs4_NtNtNtNtNtCshYfsMyf1ONS_19transaction_service9use_cases19process_transaction5tests58___mock_MockTransactionRepositoryImpl_TransactionRepository12___find_by_idNtB8_6Common4callNCNvMs6_B8_NtB8_11Expectation4call0E0Bi_
FN:139,_RNCNvMs0_NtNtNtNtNtCshYfsMyf1ONS_19transaction_service9use_cases19process_transaction5tests58___mock_MockTransactionRepositoryImpl_TransactionRepository12___find_by_idNtB7_7Matcher7matches0Bh_
FN:127,_RNCNvMs6_NtNtNtNtNtCshYfsMyf1ONS_19transaction_service9use_cases19process_transaction5tests58___mock_MockTransactionRepositoryImpl_TransactionRepository12___find_by_idNtB7_11Expectation4call0Bh_
FN:127,_RNCNvMs6_NtNtNtNtNtCshYfsMyf1ONS_19transaction_service9use_cases19process_transaction5tests58___mock_MockTransactionRepositoryImpl_TransactionRepository12___find_by_idNtB7_11Expectation4calls_0Bh_
FN:139,_RNCNvMsa_NtNtNtNtNtCshYfsMyf1ONS_19transaction_service9use_cases19process_transaction5tests58___mock_MockTransactionRepositoryImpl_TransactionRepository12___find_by_idNtB7_12Expectations4call0Bh_
FN:127,_RNCNvMsa_NtNtNtNtNtCshYfsMyf1ONS_19transaction_service9use_cases19process_transaction5tests58___mock_MockTransactionRepositoryImpl_TransactionRepository12___find_by_idNtB7_12Expectations4calls_0Bh_
FN:139,_RNvMNtNtNtNtNtCshYfsMyf1ONS_19transaction_service9use_cases19process_transaction5tests58___mock_MockTransactionRepositoryImpl_TransactionRepository25___find_pending_older_thanNtB2_5Rfunc8call_mut
FN:139,_RNvMs0_NtNtNtNtNtCshYfsMyf1ONS_19transaction_service9use_cases19process_transaction5tests58___mock_MockTransactionRepositoryImpl_TransactionRepository25___find_pending_older_thanNtB5_7Matcher7matches
FN:139,_RNvMs4_NtNtNtNtNtCshYfsMyf1ONS_19transaction_service9use_cases19process_transaction5tests58___mock_MockTransactionRepositoryImpl_TransactionRepository25___find_pending_older_thanNtB5_6Common15called_sequence
FN:139,_RNvMs4_NtNtNtNtNtCshYfsMyf1ONS_19transaction_service9use_cases19process_transaction5tests58___mock_MockTransactionRepositoryImpl_TransactionRepository25___find_pending_older_thanNtB5_6Common16satisfy_sequence
FN:139,_RNvMs4_NtNtNtNtNtCshYfsMyf1ONS_19transaction_service9use_cases19process_transaction5tests58___mock_MockTransactionRepositoryImpl_TransactionRepository25___find_pending_older_thanNtB5_6Common19is_history_sequence
FN:139,_RNvMs4_NtNtNtNtNtCshYfsMyf1ONS_19transaction_service9use_cases19process_transaction5tests58___mock_MockTransactionRepositoryImpl_TransactionRepository25___find_pending_older_thanNtB5_6Common7is_done
FN:139,_RNvMs4_NtNtNtNtNtCshYfsMyf1ONS_19transaction_service9use_cases19process_transaction5tests58___mock_MockTransactionRepositoryImpl_TransactionRepository25___find_pending_older_thanNtB5_6Common7matches
FN:139,_RNvMs6_NtNtNtNtNtCshYfsMyf1ONS_19transaction_service9use_cases19process_transaction5tests58___mock_MockTransactionRepositoryImpl_TransactionRepository25___find_pending_older_thanNtB5_11Expectation4call
FN:139,_RNvMs6_NtNtNtNtNtCshYfsMyf1ONS_19transaction_service9use_cases19process_transaction5tests58___mock_MockTransactionRepositoryImpl_TransactionRepository25___find_pending_older_thanNtB5_11Expectation7is_done
FN:139,_RNvMs6_NtNtNtNtNtCshYfsMyf1ONS_19transaction_service9use_cases19process_transaction5tests58___mock_MockTransactionRepositoryImpl_TransactionRepository25___find_pending_older_thanNtB5_11Expectation7matches
FN:139,_RNvMs8_NtNtNtNtNtCshYfsMyf1ONS_19transaction_service9use_cases19process_transaction5tests58___mock_MockTransactionRepositoryImpl_TransactionRepository25___find_pending_older_thanNtB5_12Expectations3new
FN:139,_RNvMsa_NtNtNtNtNtCshYfsMyf1ONS_19transaction_service9use_cases19process_transaction5tests58___mock_MockTransactionRepositoryImpl_TransactionRepository25___find_pending_older_thanNtB5_12Expectations4call
FN:139,_RNvXs2_NtNtNtNtNtCshYfsMyf1ONS_19transaction_service9use_cases19process_transaction5tests58___mock_MockTransactionRepositoryImpl_TransactionRepository25___find_pending_older_thanNtB5_7MatcherNtNtCs8CEGv8KHL4Y_4core3fmt7Display3fmt
FN:139,_RNvXs9_NtNtNtNtNtCshYfsMyf1ONS_19transaction_service9use_cases19process_transaction5tests58___mock_MockTransactionRepositoryImpl_TransactionRepository25___find_pending_older_thanNtB5_12ExpectationsNtNtCs8CEGv8KHL4Y_4core7default7Default7default
FN:139,_RNvMNtNtNtNtNtCshYfsMyf1ONS_19transaction_service9use_cases19process_transaction5tests58___mock_MockTransactionRepositoryImpl_TransactionRepository12___find_by_idNtB2_5Rfunc8call_mut
FN:139,_RNvMs0_NtNtNtNtNtCshYfsMyf1ONS_19transaction_service9use_cases19process_transaction5tests58___mock_MockTransactionRepositoryImpl_TransactionRepository12___find_by_idNtB5_7Matcher7matches
FN:139,_RNvMs4_NtNtNtNtNtCshYfsMyf1ONS_19transaction_service9use_cases19process_transaction5tests58___mock_MockTransactionRepositoryImpl_TransactionRepository12___find_by_idNtB5_6Common15called_sequence
FN:139,_RNvMs4_NtNtNtNtNtCshYfsMyf1ONS_19transaction_service9use_cases19process_transaction5tests58___mock_MockTransactionRepositoryImpl_TransactionRepository12___find_by_idNtB5_6Common16satisfy_sequence
FN:139,_RNvMs4_NtNtNtNtNtCshYfsMyf1ONS_19transaction_service9use_cases19process_transaction5tests58___mock_MockTransactionRepositoryImpl_TransactionRepository12___find_by_idNtB5_6Common19is_history_sequence
FN:139,_RNvMs4_NtNtNtNtNtCshYfsMyf1ONS_19transaction_service9use_cases19process_transaction5tests58___mock_MockTransactionRepositoryImpl_TransactionRepository12___find_by_idNtB5_6Common7is_done
FN:139,_RNvMs4_NtNtNtNtNtCshYfsMyf1ONS_19transaction_service9use_cases19process_transaction5tests58___mock_MockTransactionRepositoryImpl_TransactionRepository12___find_by_idNtB5_6Common7matches
FN:139,_RNvMs6_NtNtNtNtNtCshYfsMyf1ONS_19transaction_service9use_cases19process_transaction5tests58___mock_MockTransactionRepositoryImpl_TransactionRepository12___find_by_idNtB5_11Expectation4call
FN:139,_RNvMs6_NtNtNtNtNtCshYfsMyf1ONS_19transaction_service9use_cases19process_transaction5tests58___mock_MockTransactionRepositoryImpl_TransactionRepository12___find_by_idNtB5_11Expectation7is_done
FN:139,_RNvMs6_NtNtNtNtNtCshYfsMyf1ONS_19transaction_service9use_cases19process_transaction5tests58___mock_MockTransactionRepositoryImpl_TransactionRepository12___find_by_idNtB5_11Expectation7matches
FN:139,_RNvMs8_NtNtNtNtNtCshYfsMyf1ONS_19transaction_service9use_cases19process_transaction5tests58___mock_MockTransactionRepositoryImpl_TransactionRepository12___find_by_idNtB5_12Expectations3new
FN:139,_RNvMsa_NtNtNtNtNtCshYfsMyf1ONS_19transaction_service9use_cases19process_transaction5tests58___mock_MockTransactionRepositoryImpl_TransactionRepository12___find_by_idNtB5_12Expectations4call
FN:139,_RNvXs2_NtNtNtNtNtCshYfsMyf1ONS_19transaction_service9use_cases19process_transaction5tests58___mock_MockTransactionRepositoryImpl_TransactionRepository12___find_by_idNtB5_7MatcherNtNtCs8CEGv8KHL4Y_4core3fmt7Display3fmt
FN:139,_RNvXs9_NtNtNtNtNtCshYfsMyf1ONS_19transaction_service9use_cases19process_transaction5tests58___mock_MockTransactionRepositoryImpl_TransactionRepository12___find_by_idNtB5_12ExpectationsNtNtCs8CEGv8KHL4Y_4core7default7Default7default
FN:148,_RNvXs5_NtNtNtNtNtCshYfsMyf1ONS_19transaction_service9use_cases19process_transaction5tests42___mock_MockWalletGatewayImpl_WalletGateway18___process_movementNtB5_6CommonNtNtNtCs8CEGv8KHL4Y_4core3ops4drop4Drop4drop
FN:139,_RNvXs5_NtNtNtNtNtCshYfsMyf1ONS_19transaction_service9use_cases19process_transaction5tests58___mock_MockTransactionRepositoryImpl_TransactionRepository12___find_by_idNtB5_6CommonNtNtNtCs8CEGv8KHL4Y_4core3ops4drop4Drop4drop
FN:139,_RNvXs5_NtNtNtNtNtCshYfsMyf1ONS_19transaction_service9use_cases19process_transaction5tests58___mock_MockTransactionRepositoryImpl_TransactionRepository19___find_by_wallet_idNtB5_6CommonNtNtNtCs8CEGv8KHL4Y_4core3ops4drop4Drop4drop
FN:139,_RNvXs5_NtNtNtNtNtCshYfsMyf1ONS_19transaction_service9use_cases19process_transaction5tests58___mock_MockTransactionRepositoryImpl_TransactionRepository24___find_by_correlation_idNtB5_6CommonNtNtNtCs8CEGv8KHL4Y_4core3ops4drop4Drop4drop
FN:139,_RNvXs5_NtNtNtNtNtCshYfsMyf1ONS_19transaction_service9use_cases19process_transaction5tests58___mock_MockTransactionRepositoryImpl_TransactionRepository25___find_pending_older_thanNtB5_6CommonNtNtNtCs8CEGv8KHL4Y_4core3ops4drop4Drop4drop
FN:139,_RNvXs5_NtNtNtNtNtCshYfsMyf1ONS_19transaction_service9use_cases19process_transaction5tests58___mock_MockTransactionRepositoryImpl_TransactionRepository6___saveNtB5_6CommonNtNtNtCs8CEGv8KHL4Y_4core3ops4drop4Drop4drop
FN:139,_RNvXs5_NtNtNtNtNtCshYfsMyf1ONS_19transaction_service9use_cases19process_transaction5tests58___mock_MockTransactionRepositoryImpl_TransactionRepository8___updateNtB5_6CommonNtNtNtCs8CEGv8KHL4Y_4core3ops4drop4Drop4drop
FN:148,_RINvMs4_NtNtNtNtNtCshYfsMyf1ONS_19transaction_service9use_cases19process_transaction5tests42___mock_MockWalletGatewayImpl_WalletGateway18___process_movementNtB6_6Common15verify_sequenceNCNvMs6_B6_NtB6_11Expectation4call0EBg_
FN:148,_RINvMs4_NtNtNtNtNtCshYfsMyf1ONS_19transaction_service9use_cases19process_transaction5tests42___mock_MockWalletGatewayImpl_WalletGateway18___process_movementNtB6_6Common4callNCNvMs6_B6_NtB6_11Expectation4call0EBg_
FN:148,_RINvMs4_NtNtNtNtNtCshYfsMyf1ONS_19transaction_service9use_cases19process_transaction5tests42___mock_MockWalletGatewayImpl_WalletGateway18___process_movementNtB6_6Common5timesjEBg_
FN:148,_RINvMs6_NtNtNtNtNtCshYfsMyf1ONS_19transaction_service9use_cases19process_transaction5tests42___mock_MockWalletGatewayImpl_WalletGateway18___process_movementNtB6_11Expectation5timesjEBg_
FN:148,_RINvMs6_NtNtNtNtNtCshYfsMyf1ONS_19transaction_service9use_cases19process_transaction5tests42___mock_MockWalletGatewayImpl_WalletGateway18___process_movementNtB6_11Expectation9returningNCNCNvBa_s_32test_process_transaction_success0s0_0EBg_
FN:148,_RINvMs6_NtNtNtNtNtCshYfsMyf1ONS_19transaction_service9use_cases19process_transaction5tests42___mock_MockWalletGatewayImpl_WalletGateway18___process_movementNtB6_11Expectation9returningNCNCNvBa_s_40test_process_transaction_gateway_failure0s0_0EBg_
FN:141,_RNCINvMs4_NtNtNtNtNtCshYfsMyf1ONS_19transaction_service9use_cases19process_transaction5tests42___mock_MockWalletGatewayImpl_WalletGateway18___process_movementNtB8_6Common4callNCNvMs6_B8_NtB8_11Expectation4call0E0Bi_
FN:148,_RNCNvMs0_NtNtNtNtNtCshYfsMyf1ONS_19transaction_service9use_cases19process_transaction5tests42___mock_MockWalletGatewayImpl_WalletGateway18___process_movementNtB7_7Matcher7matches0Bh_
FN:141,_RNCNvMs6_NtNtNtNtNtCshYfsMyf1ONS_19transaction_service9use_cases19process_transaction5tests42___mock_MockWalletGatewayImpl_WalletGateway18___process_movementNtB7_11Expectation4call0Bh_
FN:141,_RNCNvMs6_NtNtNtNtNtCshYfsMyf1ONS_19transaction_service9use_cases19process_transaction5tests42___mock_MockWalletGatewayImpl_WalletGateway18___process_movementNtB7_11Expectation4calls_0Bh_
FN:148,_RNCNvMsa_NtNtNtNtNtCshYfsMyf1ONS_19transaction_service9use_cases19process_transaction5tests42___mock_MockWalletGatewayImpl_WalletGateway18___process_movementNtB7_12Expectations4call0Bh_
FN:141,_RNCNvMsa_NtNtNtNtNtCshYfsMyf1ONS_19transaction_service9use_cases19process_transaction5tests42___mock_MockWalletGatewayImpl_WalletGateway18___process_movementNtB7_12Expectations4calls_0Bh_
FN:148,_RNvMNtNtNtNtNtCshYfsMyf1ONS_19transaction_service9use_cases19process_transaction5tests42___mock_MockWalletGatewayImpl_WalletGateway18___process_movementNtB2_5Rfunc8call_mut
FN:148,_RNvMs0_NtNtNtNtNtCshYfsMyf1ONS_19transaction_service9use_cases19process_transaction5tests42___mock_MockWalletGatewayImpl_WalletGateway18___process_movementNtB5_7Matcher7matches
FN:148,_RNvMs4_NtNtNtNtNtCshYfsMyf1ONS_19transaction_service9use_cases19process_transaction5tests42___mock_MockWalletGatewayImpl_WalletGateway18___process_movementNtB5_6Common15called_sequence
FN:148,_RNvMs4_NtNtNtNtNtCshYfsMyf1ONS_19transaction_service9use_cases19process_transaction5tests42___mock_MockWalletGatewayImpl_WalletGateway18___process_movementNtB5_6Common16satisfy_sequence
FN:148,_RNvMs4_NtNtNtNtNtCshYfsMyf1ONS_19transaction_service9use_cases19process_transaction5tests42___mock_MockWalletGatewayImpl_WalletGateway18___process_movementNtB5_6Common19is_history_sequence
FN:148,_RNvMs4_NtNtNtNtNtCshYfsMyf1ONS_19transaction_service9use_cases19process_transaction5tests42___mock_MockWalletGatewayImpl_WalletGateway18___process_movementNtB5_6Common7is_done
FN:148,_RNvMs4_NtNtNtNtNtCshYfsMyf1ONS_19transaction_service9use_cases19process_transaction5tests42___mock_MockWalletGatewayImpl_WalletGateway18___process_movementNtB5_6Common7matches
FN:148,_RNvMs6_NtNtNtNtNtCshYfsMyf1ONS_19transaction_service9use_cases19process_transaction5tests42___mock_MockWalletGatewayImpl_WalletGateway18___process_movementNtB5_11Expectation4call
FN:148,_RNvMs6_NtNtNtNtNtCshYfsMyf1ONS_19transaction_service9use_cases19process_transaction5tests42___mock_MockWalletGatewayImpl_WalletGateway18___process_movementNtB5_11Expectation7is_done
FN:148,_RNvMs6_NtNtNtNtNtCshYfsMyf1ONS_19transaction_service9use_cases19process_transaction5tests42___mock_MockWalletGatewayImpl_WalletGateway18___process_movementNtB5_11Expectation7matches
FN:148,_RNvMs8_NtNtNtNtNtCshYfsMyf1ONS_19transaction_service9use_cases19process_transaction5tests42___mock_MockWalletGatewayImpl_WalletGateway18___process_movementNtB5_12Expectations3new
FN:148,_RNvMs8_NtNtNtNtNtCshYfsMyf1ONS_19transaction_service9use_cases19process_transaction5tests42___mock_MockWalletGatewayImpl_WalletGateway18___process_movementNtB5_12Expectations6expect
FN:148,_RNvMsa_NtNtNtNtNtCshYfsMyf1ONS_19transaction_service9use_cases19process_transaction5tests42___mock_MockWalletGatewayImpl_WalletGateway18___process_movementNtB5_12Expectations4call
FN:148,_RNvXs1_NtNtNtNtNtCshYfsMyf1ONS_19transaction_service9use_cases19process_transaction5tests42___mock_MockWalletGatewayImpl_WalletGateway18___process_movementNtB5_7MatcherNtNtCs8CEGv8KHL4Y_4core7default7Default7default
FN:148,_RNvXs2_NtNtNtNtNtCshYfsMyf1ONS_19transaction_service9use_cases19process_transaction5tests42___mock_MockWalletGatewayImpl_WalletGateway18___process_movementNtB5_7MatcherNtNtCs8CEGv8KHL4Y_4core3fmt7Display3fmt
FN:148,_RNvXs3_NtNtNtNtNtCshYfsMyf1ONS_19transaction_service9use_cases19process_transaction5tests42___mock_MockWalletGatewayImpl_WalletGateway18___process_movementNtB5_6CommonNtNtCs8CEGv8KHL4Y_4core7default7Default7default
FN:148,_RNvXs7_NtNtNtNtNtCshYfsMyf1ONS_19transaction_service9use_cases19process_transaction5tests42___mock_MockWalletGatewayImpl_WalletGateway18___process_movementNtB5_11ExpectationNtNtCs8CEGv8KHL4Y_4core7default7Default7default
FN:148,_RNvXs9_NtNtNtNtNtCshYfsMyf1ONS_19transaction_service9use_cases19process_transaction5tests42___mock_MockWalletGatewayImpl_WalletGateway18___process_movementNtB5_12ExpectationsNtNtCs8CEGv8KHL4Y_4core7default7Default7default
FN:148,_RNvXs_NtNtNtNtNtCshYfsMyf1ONS_19transaction_service9use_cases19process_transaction5tests42___mock_MockWalletGatewayImpl_WalletGateway18___process_movementNtB4_5RfuncNtNtCs8CEGv8KHL4Y_4core7default7Default7default
FN:60,_RNCNCNvMNtNtCshYfsMyf1ONS_19transaction_service9use_cases19process_transactionNtB6_25ProcessTransactionUseCase7execute00Ba_
FN:82,_RNCNCNvMNtNtCshYfsMyf1ONS_19transaction_service9use_cases19process_transactionNtB6_25ProcessTransactionUseCase7execute0s_0Ba_
FN:33,_RNCNvMNtNtCshYfsMyf1ONS_19transaction_service9use_cases19process_transactionNtB4_25ProcessTransactionUseCase7execute0B8_
FN:139,_RNvMNtNtNtNtNtCshYfsMyf1ONS_19transaction_service9use_cases19process_transaction5tests58___mock_MockTransactionRepositoryImpl_TransactionRepository6___saveNtB2_5Rfunc8call_mut
FN:139,_RNvMs0_NtNtNtNtNtCshYfsMyf1ONS_19transaction_service9use_cases19process_transaction5tests58___mock_MockTransactionRepositoryImpl_TransactionRepository6___saveNtB5_7Matcher7matches
FN:139,_RNvMs4_NtNtNtNtNtCshYfsMyf1ONS_19transaction_service9use_cases19process_transaction5tests58___mock_MockTransactionRepositoryImpl_TransactionRepository6___saveNtB5_6Common15called_sequence
FN:139,_RNvMs4_NtNtNtNtNtCshYfsMyf1ONS_19transaction_service9use_cases19process_transaction5tests58___mock_MockTransactionRepositoryImpl_TransactionRepository6___saveNtB5_6Common16satisfy_sequence
FN:139,_RNvMs4_NtNtNtNtNtCshYfsMyf1ONS_19transaction_service9use_cases19process_transaction5tests58___mock_MockTransactionRepositoryImpl_TransactionRepository6___saveNtB5_6Common19is_history_sequence
FN:139,_RNvMs4_NtNtNtNtNtCshYfsMyf1ONS_19transaction_service9use_cases19process_transaction5tests58___mock_MockTransactionRepositoryImpl_TransactionRepository6___saveNtB5_6Common7is_done
FN:139,_RNvMs4_NtNtNtNtNtCshYfsMyf1ONS_19transaction_service9use_cases19process_transaction5tests58___mock_MockTransactionRepositoryImpl_TransactionRepository6___saveNtB5_6Common7matches
FN:139,_RNvMs6_NtNtNtNtNtCshYfsMyf1ONS_19transaction_service9use_cases19process_transaction5tests58___mock_MockTransactionRepositoryImpl_TransactionRepository6___saveNtB5_11Expectation4call
FN:139,_RNvMs6_NtNtNtNtNtCshYfsMyf1ONS_19transaction_service9use_cases19process_transaction5tests58___mock_MockTransactionRepositoryImpl_TransactionRepository6___saveNtB5_11Expectation7is_done
FN:139,_RNvMs6_NtNtNtNtNtCshYfsMyf1ONS_19transaction_service9use_cases19process_transaction5tests58___mock_MockTransactionRepositoryImpl_TransactionRepository6___saveNtB5_11Expectation7matches
FN:139,_RNvMs8_NtNtNtNtNtCshYfsMyf1ONS_19transaction_service9use_cases19process_transaction5tests58___mock_MockTransactionRepositoryImpl_TransactionRepository6___saveNtB5_12Expectations3new
FN:139,_RNvMs8_NtNtNtNtNtCshYfsMyf1ONS_19transaction_service9use_cases19process_transaction5tests58___mock_MockTransactionRepositoryImpl_TransactionRepository6___saveNtB5_12Expectations6expect
FN:139,_RNvMsa_NtNtNtNtNtCshYfsMyf1ONS_19transaction_service9use_cases19process_transaction5tests58___mock_MockTransactionRepositoryImpl_TransactionRepository6___saveNtB5_12Expectations4call
FN:139,_RNvXs1_NtNtNtNtNtCshYfsMyf1ONS_19transaction_service9use_cases19process_transaction5tests58___mock_MockTransactionRepositoryImpl_TransactionRepository6___saveNtB5_7MatcherNtNtCs8CEGv8KHL4Y_4core7default7Default7default
FN:139,_RNvXs2_NtNtNtNtNtCshYfsMyf1ONS_19transaction_service9use_cases19process_transaction5tests58___mock_MockTransactionRepositoryImpl_TransactionRepository6___saveNtB5_7MatcherNtNtCs8CEGv8KHL4Y_4core3fmt7Display3fmt
FN:139,_RNvXs3_NtNtNtNtNtCshYfsMyf1ONS_19transaction_service9use_cases19process_transaction5tests58___mock_MockTransactionRepositoryImpl_TransactionRepository6___saveNtB5_6CommonNtNtCs8CEGv8KHL4Y_4core7default7Default7default
FN:139,_RNvXs7_NtNtNtNtNtCshYfsMyf1ONS_19transaction_service9use_cases19process_transaction5tests58___mock_MockTransactionRepositoryImpl_TransactionRepository6___saveNtB5_11ExpectationNtNtCs8CEGv8KHL4Y_4core7default7Default7default
FN:139,_RNvXs9_NtNtNtNtNtCshYfsMyf1ONS_19transaction_service9use_cases19process_transaction5tests58___mock_MockTransactionRepositoryImpl_TransactionRepository6___saveNtB5_12ExpectationsNtNtCs8CEGv8KHL4Y_4core7default7Default7default
FN:139,_RNvXs_NtNtNtNtNtCshYfsMyf1ONS_19transaction_service9use_cases19process_transaction5tests58___mock_MockTransactionRepositoryImpl_TransactionRepository6___saveNtB4_5RfuncNtNtCs8CEGv8KHL4Y_4core7default7Default7default
FN:139,_RINvMs4_NtNtNtNtNtCshYfsMyf1ONS_19transaction_service9use_cases19process_transaction5tests58___mock_MockTransactionRepositoryImpl_TransactionRepository6___saveNtB6_6Common15verify_sequenceNCNvMs6_B6_NtB6_11Expectation4call0EBg_
FN:139,_RINvMs4_NtNtNtNtNtCshYfsMyf1ONS_19transaction_service9use_cases19process_transaction5tests58___mock_MockTransactionRepositoryImpl_TransactionRepository6___saveNtB6_6Common4callNCNvMs6_B6_NtB6_11Expectation4call0EBg_
FN:139,_RINvMs4_NtNtNtNtNtCshYfsMyf1ONS_19transaction_service9use_cases19process_transaction5tests58___mock_MockTransactionRepositoryImpl_TransactionRepository6___saveNtB6_6Common5timesjEBg_
FN:139,_RINvMs6_NtNtNtNtNtCshYfsMyf1ONS_19transaction_service9use_cases19process_transaction5tests58___mock_MockTransactionRepositoryImpl_TransactionRepository6___saveNtB6_11Expectation5timesjEBg_
FN:139,_RINvMs6_NtNtNtNtNtCshYfsMyf1ONS_19transaction_service9use_cases19process_transaction5tests58___mock_MockTransactionRepositoryImpl_TransactionRepository6___saveNtB6_11Expectation9returningNCNCNvBa_s_32test_process_transaction_success0s_0EBg_
FN:139,_RINvMs6_NtNtNtNtNtCshYfsMyf1ONS_19transaction_service9use_cases19process_transaction5tests58___mock_MockTransactionRepositoryImpl_TransactionRepository6___saveNtB6_11Expectation9returningNCNCNvBa_s_40test_process_transaction_gateway_failure0s_0EBg_
FN:127,_RNCINvMs4_NtNtNtNtNtCshYfsMyf1ONS_19transaction_service9use_cases19process_transaction5tests58___mock_MockTransactionRepositoryImpl_TransactionRepository6___saveNtB8_6Common4callNCNvMs6_B8_NtB8_11Expectation4call0E0Bi_
FN:139,_RNCNvMs0_NtNtNtNtNtCshYfsMyf1ONS_19transaction_service9use_cases19process_transaction5tests58___mock_MockTransactionRepositoryImpl_TransactionRepository6___saveNtB7_7Matcher7matches0Bh_
FN:127,_RNCNvMs6_NtNtNtNtNtCshYfsMyf1ONS_19transaction_service9use_cases19process_transaction5tests58___mock_MockTransactionRepositoryImpl_TransactionRepository6___saveNtB7_11Expectation4call0Bh_
FN:127,_RNCNvMs6_NtNtNtNtNtCshYfsMyf1ONS_19transaction_service9use_cases19process_transaction5tests58___mock_MockTransactionRepositoryImpl_TransactionRepository6___saveNtB7_11Expectation4calls_0Bh_
FN:139,_RNCNvMsa_NtNtNtNtNtCshYfsMyf1ONS_19transaction_service9use_cases19process_transaction5tests58___mock_MockTransactionRepositoryImpl_TransactionRepository6___saveNtB7_12Expectations4call0Bh_
FN:127,_RNCNvMsa_NtNtNtNtNtCshYfsMyf1ONS_19transaction_service9use_cases19process_transaction5tests58___mock_MockTransactionRepositoryImpl_TransactionRepository6___saveNtB7_12Expectations4calls_0Bh_
FNDA:0,_RINvMs4_NtNtNtNtNtCshYfsMyf1ONS_19transaction_service9use_cases19process_transaction5tests58___mock_MockTransactionRepositoryImpl_TransactionRepository19___find_by_wallet_idNtB6_6Common15verify_sequenceNCNvMs6_B6_NtB6_11Expectation4call0EBg_
FNDA:0,_RINvMs4_NtNtNtNtNtCshYfsMyf1ONS_19transaction_service9use_cases19process_transaction5tests58___mock_MockTransactionRepositoryImpl_TransactionRepository19___find_by_wallet_idNtB6_6Common4callNCNvMs6_B6_NtB6_11Expectation4call0EBg_
FNDA:0,_RNCINvMs4_NtNtNtNtNtCshYfsMyf1ONS_19transaction_service9use_cases19process_transaction5tests58___mock_MockTransactionRepositoryImpl_TransactionRepository19___find_by_wallet_idNtB8_6Common4callNCNvMs6_B8_NtB8_11Expectation4call0E0Bi_
FNDA:0,_RNCNvMs0_NtNtNtNtNtCshYfsMyf1ONS_19transaction_service9use_cases19process_transaction5tests58___mock_MockTransactionRepositoryImpl_TransactionRepository19___find_by_wallet_idNtB7_7Matcher7matches0Bh_
FNDA:0,_RNCNvMs6_NtNtNtNtNtCshYfsMyf1ONS_19transaction_service9use_cases19process_transaction5tests58___mock_MockTransactionRepositoryImpl_TransactionRepository19___find_by_wallet_idNtB7_11Expectation4call0Bh_
FNDA:0,_RNCNvMs6_NtNtNtNtNtCshYfsMyf1ONS_19transaction_service9use_cases19process_transaction5tests58___mock_MockTransactionRepositoryImpl_TransactionRepository19___find_by_wallet_idNtB7_11Expectation4calls_0Bh_
FNDA:0,_RNCNvMsa_NtNtNtNtNtCshYfsMyf1ONS_19transaction_service9use_cases19process_transaction5tests58___mock_MockTransactionRepositoryImpl_TransactionRepository19___find_by_wallet_idNtB7_12Expectations4call0Bh_
FNDA:0,_RNCNvMsa_NtNtNtNtNtCshYfsMyf1ONS_19transaction_service9use_cases19process_transaction5tests58___mock_MockTransactionRepositoryImpl_TransactionRepository19___find_by_wallet_idNtB7_12Expectations4calls_0Bh_
FNDA:1,_RNCNCNvNtNtNtCshYfsMyf1ONS_19transaction_service9use_cases19process_transaction5testss_32test_process_transaction_success00Bb_
FNDA:1,_RNCNCNvNtNtNtCshYfsMyf1ONS_19transaction_service9use_cases19process_transaction5testss_32test_process_transaction_success0s1_0Bb_
FNDA:1,_RNCNCNvNtNtNtCshYfsMyf1ONS_19transaction_service9use_cases19process_transaction5testss_32test_process_transaction_success0s2_0Bb_
FNDA:1,_RNCNCNvNtNtNtCshYfsMyf1ONS_19transaction_service9use_cases19process_transaction5testss_32test_process_transaction_success0s_0Bb_
FNDA:1,_RNCNCNvNtNtNtCshYfsMyf1ONS_19transaction_service9use_cases19process_transaction5testss_36test_process_transaction_idempotency00Bb_
FNDA:1,_RNCNCNvNtNtNtCshYfsMyf1ONS_19transaction_service9use_cases19process_transaction5testss_40test_process_transaction_gateway_failure00Bb_
FNDA:1,_RNCNCNvNtNtNtCshYfsMyf1ONS_19transaction_service9use_cases19process_transaction5testss_40test_process_transaction_gateway_failure0s1_0Bb_
FNDA:1,_RNCNCNvNtNtNtCshYfsMyf1ONS_19transaction_service9use_cases19process_transaction5testss_40test_process_transaction_gateway_failure0s2_0Bb_
FNDA:1,_RNCNCNvNtNtNtCshYfsMyf1ONS_19transaction_service9use_cases19process_transaction5testss_40test_process_transaction_gateway_failure0s_0Bb_
FNDA:1,_RNCNvNtNtNtCshYfsMyf1ONS_19transaction_service9use_cases19process_transaction5testss_32test_process_transaction_success0B9_
FNDA:1,_RNCNvNtNtNtCshYfsMyf1ONS_19transaction_service9use_cases19process_transaction5testss_36test_process_transaction_idempotency0B9_
FNDA:1,_RNCNvNtNtNtCshYfsMyf1ONS_19transaction_service9use_cases19process_transaction5testss_40test_process_transaction_gateway_failure0B9_
FNDA:2,_RINvMs4_NtNtNtNtNtCshYfsMyf1ONS_19transaction_service9use_cases19process_transaction5tests58___mock_MockTransactionRepositoryImpl_TransactionRepository8___updateNtB6_6Common15verify_sequenceNCNvMs6_B6_NtB6_11Expectation4call0EBg_
FNDA:2,_RINvMs4_NtNtNtNtNtCshYfsMyf1ONS_19transaction_service9use_cases19process_transaction5tests58___mock_MockTransactionRepositoryImpl_TransactionRepository8___updateNtB6_6Common4callNCNvMs6_B6_NtB6_11Expectation4call0EBg_
FNDA:1,_RINvMs4_NtNtNtNtNtCshYfsMyf1ONS_19transaction_service9use_cases19process_transaction5tests58___mock_MockTransactionRepositoryImpl_TransactionRepository8___updateNtB6_6Common4withINtNtCs3yJXAUNYaTE_10predicates8function11FnPredicateNCNCNvBa_s_32test_process_transaction_success0s1_0NtNtNtBg_6domain8entities11TransactionEEBg_
FNDA:1,_RINvMs4_NtNtNtNtNtCshYfsMyf1ONS_19transaction_service9use_cases19process_transaction5tests58___mock_MockTransactionRepositoryImpl_TransactionRepository8___updateNtB6_6Common4withINtNtCs3yJXAUNYaTE_10predicates8function11FnPredicateNCNCNvBa_s_40test_process_transaction_gateway_failure0s1_0NtNtNtBg_6domain8entities11TransactionEEBg_
FNDA:2,_RINvMs4_NtNtNtNtNtCshYfsMyf1ONS_19transaction_service9use_cases19process_transaction5tests58___mock_MockTransactionRepositoryImpl_TransactionRepository8___updateNtB6_6Common5timesjEBg_
FNDA:1,_RINvMs6_NtNtNtNtNtCshYfsMyf1ONS_19transaction_service9use_cases19process_transaction5tests58___mock_MockTransactionRepositoryImpl_TransactionRepository8___updateNtB6_11Expectation4withINtNtCs3yJXAUNYaTE_10predicates8function11FnPredicateNCNCNvBa_s_32test_process_transaction_success0s1_0NtNtNtBg_6domain8entities11TransactionEEBg_
FNDA:1,_RINvMs6_NtNtNtNtNtCshYfsMyf1ONS_19transaction_service9use_cases19process_transaction5tests58___mock_MockTransactionRepositoryImpl_TransactionRepository8___updateNtB6_11Expectation4withINtNtCs3yJXAUNYaTE_10predicates8function11FnPredicateNCNCNvBa_s_40test_process_transaction_gateway_failure0s1_0NtNtNtBg_6domain8entities11TransactionEEBg_
FNDA:2,_RINvMs6_NtNtNtNtNtCshYfsMyf1ONS_19transaction_service9use_cases19process_transaction5tests58___mock_MockTransactionRepositoryImpl_TransactionRepository8___updateNtB6_11Expectation5timesjEBg_
FNDA:1,_RINvMs6_NtNtNtNtNtCshYfsMyf1ONS_19transaction_service9use_cases19process_transaction5tests58___mock_MockTransactionRepositoryImpl_TransactionRepository8___updateNtB6_11Expectation9returningNCNCNvBa_s_32test_process_transaction_success0s2_0EBg_
FNDA:1,_RINvMs6_NtNtNtNtNtCshYfsMyf1ONS_19transaction_service9use_cases19process_transaction5tests58___mock_MockTransactionRepositoryImpl_TransactionRepository8___updateNtB6_11Expectation9returningNCNCNvBa_s_40test_process_transaction_gateway_failure0s2_0EBg_
FNDA:0,_RNCINvMs4_NtNtNtNtNtCshYfsMyf1ONS_19transaction_service9use_cases19process_transaction5tests58___mock_MockTransactionRepositoryImpl_TransactionRepository8___updateNtB8_6Common4callNCNvMs6_B8_NtB8_11Expectation4call0E0Bi_
FNDA:2,_RNCNvMs0_NtNtNtNtNtCshYfsMyf1ONS_19transaction_service9use_cases19process_transaction5tests58___mock_MockTransactionRepositoryImpl_TransactionRepository8___updateNtB7_7Matcher7matches0Bh_
FNDA:0,_RNCNvMs6_NtNtNtNtNtCshYfsMyf1ONS_19transaction_service9use_cases19process_transaction5tests58___mock_MockTransactionRepositoryImpl_TransactionRepository8___updateNtB7_11Expectation4call0Bh_
FNDA:0,_RNCNvMs6_NtNtNtNtNtCshYfsMyf1ONS_19transaction_service9use_cases19process_transaction5tests58___mock_MockTransactionRepositoryImpl_TransactionRepository8___updateNtB7_11Expectation4calls_0Bh_
FNDA:2,_RNCNvMsa_NtNtNtNtNtCshYfsMyf1ONS_19transaction_service9use_cases19process_transaction5tests58___mock_MockTransactionRepositoryImpl_TransactionRepository8___updateNtB7_12Expectations4call0Bh_
FNDA:0,_RNCNvMsa_NtNtNtNtNtCshYfsMyf1ONS_19transaction_service9use_cases19process_transaction5tests58___mock_MockTransactionRepositoryImpl_TransactionRepository8___updateNtB7_12Expectations4calls_0Bh_
FNDA:3,_RNvMs1_NtNtNtCshYfsMyf1ONS_19transaction_service9use_cases19process_transaction5testsNtB5_29MockTransactionRepositoryImpl3new
FNDA:2,_RNvMs2_NtNtNtCshYfsMyf1ONS_19transaction_service9use_cases19process_transaction5testsNtB5_29MockTransactionRepositoryImpl11expect_save
FNDA:2,_RNvMs2_NtNtNtCshYfsMyf1ONS_19transaction_service9use_cases19process_transaction5testsNtB5_29MockTransactionRepositoryImpl13expect_update
FNDA:3,_RNvMs2_NtNtNtCshYfsMyf1ONS_19transaction_service9use_cases19process_transaction5testsNtB5_29MockTransactionRepositoryImpl29expect_find_by_correlation_id
FNDA:3,_RNvMs7_NtNtNtCshYfsMyf1ONS_19transaction_service9use_cases19process_transaction5testsNtB5_21MockWalletGatewayImpl3new
FNDA:2,_RNvMs8_NtNtNtCshYfsMyf1ONS_19transaction_service9use_cases19process_transaction5testsNtB5_21MockWalletGatewayImpl23expect_process_movement
FNDA:1,_RNvNtNtNtCshYfsMyf1ONS_19transaction_service9use_cases19process_transaction5testss_32test_process_transaction_success
FNDA:1,_RNvNtNtNtCshYfsMyf1ONS_19transaction_service9use_cases19process_transaction5testss_36test_process_transaction_idempotency
FNDA:1,_RNvNtNtNtCshYfsMyf1ONS_19transaction_service9use_cases19process_transaction5testss_40test_process_transaction_gateway_failure
FNDA:3,_RNvXNtNtNtCshYfsMyf1ONS_19transaction_service9use_cases19process_transaction5testsNtB2_29MockTransactionRepositoryImplNtNtCs8CEGv8KHL4Y_4core7default7Default7default
FNDA:0,_RNvXs3_NtNtNtCshYfsMyf1ONS_19transaction_service9use_cases19process_transaction5testsNtB5_29MockTransactionRepositoryImplNtNtNtBb_6domain10repository21TransactionRepository10find_by_id
FNDA:0,_RNvXs3_NtNtNtCshYfsMyf1ONS_19transaction_service9use_cases19process_transaction5testsNtB5_29MockTransactionRepositoryImplNtNtNtBb_6domain10repository21TransactionRepository17find_by_wallet_id
FNDA:3,_RNvXs3_NtNtNtCshYfsMyf1ONS_19transaction_service9use_cases19process_transaction5testsNtB5_29MockTransactionRepositoryImplNtNtNtBb_6domain10repository21TransactionRepository22find_by_correlation_id
FNDA:0,_RNvXs3_NtNtNtCshYfsMyf1ONS_19transaction_service9use_cases19process_transaction5testsNtB5_29MockTransactionRepositoryImplNtNtNtBb_6domain10repository21TransactionRepository23find_pending_older_than
FNDA:2,_RNvXs3_NtNtNtCshYfsMyf1ONS_19transaction_service9use_cases19process_transaction5testsNtB5_29MockTransactionRepositoryImplNtNtNtBb_6domain10repository21TransactionRepository4save
FNDA:2,_RNvXs3_NtNtNtCshYfsMyf1ONS_19transaction_service9use_cases19process_transaction5testsNtB5_29MockTransactionRepositoryImplNtNtNtBb_6domain10repository21TransactionRepository6update
FNDA:3,_RNvXs4_NtNtNtCshYfsMyf1ONS_19transaction_service9use_cases19process_transaction5testsNtB5_21MockWalletGatewayImplNtNtCs8CEGv8KHL4Y_4core7default7Default7default
FNDA:3,_RNvXs5_NtNtNtCshYfsMyf1ONS_19transaction_service9use_cases19process_transaction5testsNtB5_35MockWalletGatewayImpl_WalletGatewayNtNtCs8CEGv8KHL4Y_4core7default7Default7default
FNDA:2,_RNvXs9_NtNtNtCshYfsMyf1ONS_19transaction_service9use_cases19process_transaction5testsNtB5_21MockWalletGatewayImplNtNtNtBb_6domain8gateways13WalletGateway16process_movement
FNDA:3,_RNvXs_NtNtNtCshYfsMyf1ONS_19transaction_service9use_cases19process_transaction5testsNtB4_51MockTransactionRepositoryImpl_TransactionRepositoryNtNtCs8CEGv8KHL4Y_4core7default7Default7default
FNDA:2,_RNvMNtNtNtNtNtCshYfsMyf1ONS_19transaction_service9use_cases19process_transaction5tests58___mock_MockTransactionRepositoryImpl_TransactionRepository8___updateNtB2_5Rfunc8call_mut
FNDA:2,_RNvMs0_NtNtNtNtNtCshYfsMyf1ONS_19transaction_service9use_cases19process_transaction5tests58___mock_MockTransactionRepositoryImpl_TransactionRepository8___updateNtB5_7Matcher7matches
FNDA:0,_RNvMs4_NtNtNtNtNtCshYfsMyf1ONS_19transaction_service9use_cases19process_transaction5tests58___mock_MockTransactionRepositoryImpl_TransactionRepository8___updateNtB5_6Common15called_sequence
FNDA:2,_RNvMs4_NtNtNtNtNtCshYfsMyf1ONS_19transaction_service9use_cases19process_transaction5tests58___mock_MockTransactionRepositoryImpl_TransactionRepository8___updateNtB5_6Common16satisfy_sequence
FNDA:2,_RNvMs4_NtNtNtNtNtCshYfsMyf1ONS_19transaction_service9use_cases19process_transaction5tests58___mock_MockTransactionRepositoryImpl_TransactionRepository8___updateNtB5_6Common19is_history_sequence
FNDA:2,_RNvMs4_NtNtNtNtNtCshYfsMyf1ONS_19transaction_service9use_cases19process_transaction5tests58___mock_MockTransactionRepositoryImpl_TransactionRepository8___updateNtB5_6Common7is_done
FNDA:2,_RNvMs4_NtNtNtNtNtCshYfsMyf1ONS_19transaction_service9use_cases19process_transaction5tests58___mock_MockTransactionRepositoryImpl_TransactionRepository8___updateNtB5_6Common7matches
FNDA:2,_RNvMs6_NtNtNtNtNtCshYfsMyf1ONS_19transaction_service9use_cases19process_transaction5tests58___mock_MockTransactionRepositoryImpl_TransactionRepository8___updateNtB5_11Expectation4call
FNDA:2,_RNvMs6_NtNtNtNtNtCshYfsMyf1ONS_19transaction_service9use_cases19process_transaction5tests58___mock_MockTransactionRepositoryImpl_TransactionRepository8___updateNtB5_11Expectation7is_done
FNDA:2,_RNvMs6_NtNtNtNtNtCshYfsMyf1ONS_19transaction_service9use_cases19process_transaction5tests58___mock_MockTransactionRepositoryImpl_TransactionRepository8___updateNtB5_11Expectation7matches
FNDA:3,_RNvMs8_NtNtNtNtNtCshYfsMyf1ONS_19transaction_service9use_cases19process_transaction5tests58___mock_MockTransactionRepositoryImpl_TransactionRepository8___updateNtB5_12Expectations3new
FNDA:2,_RNvMs8_NtNtNtNtNtCshYfsMyf1ONS_19transaction_service9use_cases19process_transaction5tests58___mock_MockTransactionRepositoryImpl_TransactionRepository8___updateNtB5_12Expectations6expect
FNDA:2,_RNvMsa_NtNtNtNtNtCshYfsMyf1ONS_19transaction_service9use_cases19process_transaction5tests58___mock_MockTransactionRepositoryImpl_TransactionRepository8___updateNtB5_12Expectations4call
FNDA:2,_RNvXs1_NtNtNtNtNtCshYfsMyf1ONS_19transaction_service9use_cases19process_transaction5tests58___mock_MockTransactionRepositoryImpl_TransactionRepository8___updateNtB5_7MatcherNtNtCs8CEGv8KHL4Y_4core7default7Default7default
FNDA:2,_RNvXs2_NtNtNtNtNtCshYfsMyf1ONS_19transaction_service9use_cases19process_transaction5tests58___mock_MockTransactionRepositoryImpl_TransactionRepository8___updateNtB5_7MatcherNtNtCs8CEGv8KHL4Y_4core3fmt7Display3fmt
FNDA:2,_RNvXs3_NtNtNtNtNtCshYfsMyf1ONS_19transaction_service9use_cases19process_transaction5tests58___mock_MockTransactionRepositoryImpl_TransactionRepository8___updateNtB5_6CommonNtNtCs8CEGv8KHL4Y_4core7default7Default7default
FNDA:2,_RNvXs7_NtNtNtNtNtCshYfsMyf1ONS_19transaction_service9use_cases19process_transaction5tests58___mock_MockTransactionRepositoryImpl_TransactionRepository8___updateNtB5_11ExpectationNtNtCs8CEGv8KHL4Y_4core7default7Default7default
FNDA:3,_RNvXs9_NtNtNtNtNtCshYfsMyf1ONS_19transaction_service9use_cases19process_transaction5tests58___mock_MockTransactionRepositoryImpl_TransactionRepository8___updateNtB5_12ExpectationsNtNtCs8CEGv8KHL4Y_4core7default7Default7default
FNDA:2,_RNvXs_NtNtNtNtNtCshYfsMyf1ONS_19transaction_service9use_cases19process_transaction5tests58___mock_MockTransactionRepositoryImpl_TransactionRepository8___updateNtB4_5RfuncNtNtCs8CEGv8KHL4Y_4core7default7Default7default
FNDA:3,_RNvMNtNtNtNtNtCshYfsMyf1ONS_19transaction_service9use_cases19process_transaction5tests58___mock_MockTransactionRepositoryImpl_TransactionRepository24___find_by_correlation_idNtB2_5Rfunc8call_mut
FNDA:3,_RNvMs0_NtNtNtNtNtCshYfsMyf1ONS_19transaction_service9use_cases19process_transaction5tests58___mock_MockTransactionRepositoryImpl_TransactionRepository24___find_by_correlation_idNtB5_7Matcher7matches
FNDA:0,_RNvMs4_NtNtNtNtNtCshYfsMyf1ONS_19transaction_service9use_cases19process_transaction5tests58___mock_MockTransactionRepositoryImpl_TransactionRepository24___find_by_correlation_idNtB5_6Common15called_sequence
FNDA:3,_RNvMs4_NtNtNtNtNtCshYfsMyf1ONS_19transaction_service9use_cases19process_transaction5tests58___mock_MockTransactionRepositoryImpl_TransactionRepository24___find_by_correlation_idNtB5_6Common16satisfy_sequence
FNDA:3,_RNvMs4_NtNtNtNtNtCshYfsMyf1ONS_19transaction_service9use_cases19process_transaction5tests58___mock_MockTransactionRepositoryImpl_TransactionRepository24___find_by_correlation_idNtB5_6Common19is_history_sequence
FNDA:3,_RNvMs4_NtNtNtNtNtCshYfsMyf1ONS_19transaction_service9use_cases19process_transaction5tests58___mock_MockTransactionRepositoryImpl_TransactionRepository24___find_by_correlation_idNtB5_6Common7is_done
FNDA:3,_RNvMs4_NtNtNtNtNtCshYfsMyf1ONS_19transaction_service9use_cases19process_transaction5tests58___mock_MockTransactionRepositoryImpl_TransactionRepository24___find_by_correlation_idNtB5_6Common7matches
FNDA:3,_RNvMs6_NtNtNtNtNtCshYfsMyf1ONS_19transaction_service9use_cases19process_transaction5tests58___mock_MockTransactionRepositoryImpl_TransactionRepository24___find_by_correlation_idNtB5_11Expectation4call
FNDA:3,_RNvMs6_NtNtNtNtNtCshYfsMyf1ONS_19transaction_service9use_cases19process_transaction5tests58___mock_MockTransactionRepositoryImpl_TransactionRepository24___find_by_correlation_idNtB5_11Expectation7is_done
FNDA:3,_RNvMs6_NtNtNtNtNtCshYfsMyf1ONS_19transaction_service9use_cases19process_transaction5tests58___mock_MockTransactionRepositoryImpl_TransactionRepository24___find_by_correlation_idNtB5_11Expectation7matches
FNDA:3,_RNvMs8_NtNtNtNtNtCshYfsMyf1ONS_19transaction_service9use_cases19process_transaction5tests58___mock_MockTransactionRepositoryImpl_TransactionRepository24___find_by_correlation_idNtB5_12Expectations3new
FNDA:3,_RNvMs8_NtNtNtNtNtCshYfsMyf1ONS_19transaction_service9use_cases19process_transaction5tests58___mock_MockTransactionRepositoryImpl_TransactionRepository24___find_by_correlation_idNtB5_12Expectations6expect
FNDA:3,_RNvMsa_NtNtNtNtNtCshYfsMyf1ONS_19transaction_service9use_cases19process_transaction5tests58___mock_MockTransactionRepositoryImpl_TransactionRepository24___find_by_correlation_idNtB5_12Expectations4call
FNDA:3,_RNvXs1_NtNtNtNtNtCshYfsMyf1ONS_19transaction_service9use_cases19process_transaction5tests58___mock_MockTransactionRepositoryImpl_TransactionRepository24___find_by_correlation_idNtB5_7MatcherNtNtCs8CEGv8KHL4Y_4core7default7Default7default
FNDA:3,_RNvXs2_NtNtNtNtNtCshYfsMyf1ONS_19transaction_service9use_cases19process_transaction5tests58___mock_MockTransactionRepositoryImpl_TransactionRepository24___find_by_correlation_idNtB5_7MatcherNtNtCs8CEGv8KHL4Y_4core3fmt7Display3fmt
FNDA:3,_RNvXs3_NtNtNtNtNtCshYfsMyf1ONS_19transaction_service9use_cases19process_transaction5tests58___mock_MockTransactionRepositoryImpl_TransactionRepository24___find_by_correlation_idNtB5_6CommonNtNtCs8CEGv8KHL4Y_4core7default7Default7default
FNDA:3,_RNvXs7_NtNtNtNtNtCshYfsMyf1ONS_19transaction_service9use_cases19process_transaction5tests58___mock_MockTransactionRepositoryImpl_TransactionRepository24___find_by_correlation_idNtB5_11ExpectationNtNtCs8CEGv8KHL4Y_4core7default7Default7default
FNDA:3,_RNvXs9_NtNtNtNtNtCshYfsMyf1ONS_19transaction_service9use_cases19process_transaction5tests58___mock_MockTransactionRepositoryImpl_TransactionRepository24___find_by_correlation_idNtB5_12ExpectationsNtNtCs8CEGv8KHL4Y_4core7default7Default7default
FNDA:3,_RNvXs_NtNtNtNtNtCshYfsMyf1ONS_19transaction_service9use_cases19process_transaction5tests58___mock_MockTransactionRepositoryImpl_TransactionRepository24___find_by_correlation_idNtB4_5RfuncNtNtCs8CEGv8KHL4Y_4core7default7Default7default
FNDA:3,_RINvMs4_NtNtNtNtNtCshYfsMyf1ONS_19transaction_service9use_cases19process_transaction5tests58___mock_MockTransactionRepositoryImpl_TransactionRepository24___find_by_correlation_idNtB6_6Common15verify_sequenceNCNvMs6_B6_NtB6_11Expectation4call0EBg_
FNDA:3,_RINvMs4_NtNtNtNtNtCshYfsMyf1ONS_19transaction_service9use_cases19process_transaction5tests58___mock_MockTransactionRepositoryImpl_TransactionRepository24___find_by_correlation_idNtB6_6Common4callNCNvMs6_B6_NtB6_11Expectation4call0EBg_
FNDA:2,_RINvMs4_NtNtNtNtNtCshYfsMyf1ONS_19transaction_service9use_cases19process_transaction5tests58___mock_MockTransactionRepositoryImpl_TransactionRepository24___find_by_correlation_idNtB6_6Common4withINtNtCs3yJXAUNYaTE_10predicates3ord11EqPredicateNtCskdSumWYQxYL_4uuid4UuidEEBg_
FNDA:2,_RINvMs4_NtNtNtNtNtCshYfsMyf1ONS_19transaction_service9use_cases19process_transaction5tests58___mock_MockTransactionRepositoryImpl_TransactionRepository24___find_by_correlation_idNtB6_6Common5timesjEBg_
FNDA:2,_RINvMs6_NtNtNtNtNtCshYfsMyf1ONS_19transaction_service9use_cases19process_transaction5tests58___mock_MockTransactionRepositoryImpl_TransactionRepository24___find_by_correlation_idNtB6_11Expectation4withINtNtCs3yJXAUNYaTE_10predicates3ord11EqPredicateNtCskdSumWYQxYL_4uuid4UuidEEBg_
FNDA:2,_RINvMs6_NtNtNtNtNtCshYfsMyf1ONS_19transaction_service9use_cases19process_transaction5tests58___mock_MockTransactionRepositoryImpl_TransactionRepository24___find_by_correlation_idNtB6_11Expectation5timesjEBg_
FNDA:1,_RINvMs6_NtNtNtNtNtCshYfsMyf1ONS_19transaction_service9use_cases19process_transaction5tests58___mock_MockTransactionRepositoryImpl_TransactionRepository24___find_by_correlation_idNtB6_11Expectation9returningNCNCNvBa_s_32test_process_transaction_success00EBg_
FNDA:1,_RINvMs6_NtNtNtNtNtCshYfsMyf1ONS_19transaction_service9use_cases19process_transaction5tests58___mock_MockTransactionRepositoryImpl_TransactionRepository24___find_by_correlation_idNtB6_11Expectation9returningNCNCNvBa_s_36test_process_transaction_idempotency00EBg_
FNDA:1,_RINvMs6_NtNtNtNtNtCshYfsMyf1ONS_19transaction_service9use_cases19process_transaction5tests58___mock_MockTransactionRepositoryImpl_TransactionRepository24___find_by_correlation_idNtB6_11Expectation9returningNCNCNvBa_s_40test_process_transaction_gateway_failure00EBg_
FNDA:0,_RNCINvMs4_NtNtNtNtNtCshYfsMyf1ONS_19transaction_service9use_cases19process_transaction5tests58___mock_MockTransactionRepositoryImpl_TransactionRepository24___find_by_correlation_idNtB8_6Common4callNCNvMs6_B8_NtB8_11Expectation4call0E0Bi_
FNDA:2,_RNCNvMs0_NtNtNtNtNtCshYfsMyf1ONS_19transaction_service9use_cases19process_transaction5tests58___mock_MockTransactionRepositoryImpl_TransactionRepository24___find_by_correlation_idNtB7_7Matcher7matches0Bh_
FNDA:0,_RNCNvMs6_NtNtNtNtNtCshYfsMyf1ONS_19transaction_service9use_cases19process_transaction5tests58___mock_MockTransactionRepositoryImpl_TransactionRepository24___find_by_correlation_idNtB7_11Expectation4call0Bh_
FNDA:0,_RNCNvMs6_NtNtNtNtNtCshYfsMyf1ONS_19transaction_service9use_cases19process_transaction5tests58___mock_MockTransactionRepositoryImpl_TransactionRepository24___find_by_correlation_idNtB7_11Expectation4calls_0Bh_
FNDA:3,_RNCNvMsa_NtNtNtNtNtCshYfsMyf1ONS_19transaction_service9use_cases19process_transaction5tests58___mock_MockTransactionRepositoryImpl_TransactionRepository24___find_by_correlation_idNtB7_12Expectations4call0Bh_
FNDA:0,_RNCNvMsa_NtNtNtNtNtCshYfsMyf1ONS_19transaction_service9use_cases19process_transaction5tests58___mock_MockTransactionRepositoryImpl_TransactionRepository24___find_by_correlation_idNtB7_12Expectations4calls_0Bh_
FNDA:3,_RNvMNtNtCshYfsMyf1ONS_19transaction_service9use_cases19process_transactionNtB2_25ProcessTransactionUseCase3new
FNDA:3,_RNvMNtNtCshYfsMyf1ONS_19transaction_service9use_cases19process_transactionNtB2_25ProcessTransactionUseCase7execute
FNDA:0,_RINvMs4_NtNtNtNtNtCshYfsMyf1ONS_19transaction_service9use_cases19process_transaction5tests58___mock_MockTransactionRepositoryImpl_TransactionRepository25___find_pending_older_thanNtB6_6Common15verify_sequenceNCNvMs6_B6_NtB6_11Expectation4call0EBg_
FNDA:0,_RINvMs4_NtNtNtNtNtCshYfsMyf1ONS_19transaction_service9use_cases19process_transaction5tests58___mock_MockTransactionRepositoryImpl_TransactionRepository25___find_pending_older_thanNtB6_6Common4callNCNvMs6_B6_NtB6_11Expectation4call0EBg_
FNDA:0,_RNCINvMs4_NtNtNtNtNtCshYfsMyf1ONS_19transaction_service9use_cases19process_transaction5tests58___mock_MockTransactionRepositoryImpl_TransactionRepository25___find_pending_older_thanNtB8_6Common4callNCNvMs6_B8_NtB8_11Expectation4call0E0Bi_
FNDA:0,_RNCNvMs0_NtNtNtNtNtCshYfsMyf1ONS_19transaction_service9use_cases19process_transaction5tests58___mock_MockTransactionRepositoryImpl_TransactionRepository25___find_pending_older_thanNtB7_7Matcher7matches0Bh_
FNDA:0,_RNCNvMs6_NtNtNtNtNtCshYfsMyf1ONS_19transaction_service9use_cases19process_transaction5tests58___mock_MockTransactionRepositoryImpl_TransactionRepository25___find_pending_older_thanNtB7_11Expectation4call0Bh_
FNDA:0,_RNCNvMs6_NtNtNtNtNtCshYfsMyf1ONS_19transaction_service9use_cases19process_transaction5tests58___mock_MockTransactionRepositoryImpl_TransactionRepository25___find_pending_older_thanNtB7_11Expectation4calls_0Bh_
FNDA:0,_RNCNvMsa_NtNtNtNtNtCshYfsMyf1ONS_19transaction_service9use_cases19process_transaction5tests58___mock_MockTransactionRepositoryImpl_TransactionRepository25___find_pending_older_thanNtB7_12Expectations4call0Bh_
FNDA:0,_RNCNvMsa_NtNtNtNtNtCshYfsMyf1ONS_19transaction_service9use_cases19process_transaction5tests58___mock_MockTransactionRepositoryImpl_TransactionRepository25___find_pending_older_thanNtB7_12Expectations4calls_0Bh_
FNDA:0,_RINvMs4_NtNtNtNtNtCshYfsMyf1ONS_19transaction_service9use_cases19process_transaction5tests42___mock_MockWalletGatewayImpl_WalletGateway18___process_movementNtB6_6Common4withpEBg_
FNDA:0,_RINvMs4_NtNtNtNtNtCshYfsMyf1ONS_19transaction_service9use_cases19process_transaction5tests42___mock_MockWalletGatewayImpl_WalletGateway18___process_movementNtB6_6Common5withfpEBg_
FNDA:0,_RINvMs4_NtNtNtNtNtCshYfsMyf1ONS_19transaction_service9use_cases19process_transaction5tests42___mock_MockWalletGatewayImpl_WalletGateway18___process_movementNtB6_6Common8withf_stpEBg_
FNDA:0,_RINvMs4_NtNtNtNtNtCshYfsMyf1ONS_19transaction_service9use_cases19process_transaction5tests58___mock_MockTransactionRepositoryImpl_TransactionRepository12___find_by_idNtB6_6Common4withpEBg_
FNDA:0,_RINvMs4_NtNtNtNtNtCshYfsMyf1ONS_19transaction_service9use_cases19process_transaction5tests58___mock_MockTransactionRepositoryImpl_TransactionRepository12___find_by_idNtB6_6Common5timespEBg_
FNDA:0,_RINvMs4_NtNtNtNtNtCshYfsMyf1ONS_19transaction_service9use_cases19process_transaction5tests58___mock_MockTransactionRepositoryImpl_TransactionRepository12___find_by_idNtB6_6Common5withfpEBg_
FNDA:0,_RINvMs4_NtNtNtNtNtCshYfsMyf1ONS_19transaction_service9use_cases19process_transaction5tests58___mock_MockTransactionRepositoryImpl_TransactionRepository12___find_by_idNtB6_6Common8withf_stpEBg_
FNDA:0,_RINvMs4_NtNtNtNtNtCshYfsMyf1ONS_19transaction_service9use_cases19process_transaction5tests58___mock_MockTransactionRepositoryImpl_TransactionRepository19___find_by_wallet_idNtB6_6Common4withpEBg_
FNDA:0,_RINvMs4_NtNtNtNtNtCshYfsMyf1ONS_19transaction_service9use_cases19process_transaction5tests58___mock_MockTransactionRepositoryImpl_TransactionRepository19___find_by_wallet_idNtB6_6Common5timespEBg_
FNDA:0,_RINvMs4_NtNtNtNtNtCshYfsMyf1ONS_19transaction_service9use_cases19process_transaction5tests58___mock_MockTransactionRepositoryImpl_TransactionRepository19___find_by_wallet_idNtB6_6Common5withfpEBg_
FNDA:0,_RINvMs4_NtNtNtNtNtCshYfsMyf1ONS_19transaction_service9use_cases19process_transaction5tests58___mock_MockTransactionRepositoryImpl_TransactionRepository19___find_by_wallet_idNtB6_6Common8withf_stpEBg_
FNDA:0,_RINvMs4_NtNtNtNtNtCshYfsMyf1ONS_19transaction_service9use_cases19process_transaction5tests58___mock_MockTransactionRepositoryImpl_TransactionRepository24___find_by_correlation_idNtB6_6Common5withfpEBg_
FNDA:0,_RINvMs4_NtNtNtNtNtCshYfsMyf1ONS_19transaction_service9use_cases19process_transaction5tests58___mock_MockTransactionRepositoryImpl_TransactionRepository24___find_by_correlation_idNtB6_6Common8withf_stpEBg_
FNDA:0,_RINvMs4_NtNtNtNtNtCshYfsMyf1ONS_19transaction_service9use_cases19process_transaction5tests58___mock_MockTransactionRepositoryImpl_TransactionRepository25___find_pending_older_thanNtB6_6Common4withpEBg_
FNDA:0,_RINvMs4_NtNtNtNtNtCshYfsMyf1ONS_19transaction_service9use_cases19process_transaction5tests58___mock_MockTransactionRepositoryImpl_TransactionRepository25___find_pending_older_thanNtB6_6Common5timespEBg_
FNDA:0,_RINvMs4_NtNtNtNtNtCshYfsMyf1ONS_19transaction_service9use_cases19process_transaction5tests58___mock_MockTransactionRepositoryImpl_TransactionRepository25___find_pending_older_thanNtB6_6Common5withfpEBg_
FNDA:0,_RINvMs4_NtNtNtNtNtCshYfsMyf1ONS_19transaction_service9use_cases19process_transaction5tests58___mock_MockTransactionRepositoryImpl_TransactionRepository25___find_pending_older_thanNtB6_6Common8withf_stpEBg_
FNDA:0,_RINvMs4_NtNtNtNtNtCshYfsMyf1ONS_19transaction_service9use_cases19process_transaction5tests58___mock_MockTransactionRepositoryImpl_TransactionRepository6___saveNtB6_6Common4withpEBg_
FNDA:0,_RINvMs4_NtNtNtNtNtCshYfsMyf1ONS_19transaction_service9use_cases19process_transaction5tests58___mock_MockTransactionRepositoryImpl_TransactionRepository6___saveNtB6_6Common5withfpEBg_
FNDA:0,_RINvMs4_NtNtNtNtNtCshYfsMyf1ONS_19transaction_service9use_cases19process_transaction5tests58___mock_MockTransactionRepositoryImpl_TransactionRepository6___saveNtB6_6Common8withf_stpEBg_
FNDA:0,_RINvMs4_NtNtNtNtNtCshYfsMyf1ONS_19transaction_service9use_cases19process_transaction5tests58___mock_MockTransactionRepositoryImpl_TransactionRepository8___updateNtB6_6Common5withfpEBg_
FNDA:0,_RINvMs4_NtNtNtNtNtCshYfsMyf1ONS_19transaction_service9use_cases19process_transaction5tests58___mock_MockTransactionRepositoryImpl_TransactionRepository8___updateNtB6_6Common8withf_stpEBg_
FNDA:0,_RINvMs6_NtNtNtNtNtCshYfsMyf1ONS_19transaction_service9use_cases19process_transaction5tests42___mock_MockWalletGatewayImpl_WalletGateway18___process_movementNtB6_11Expectation11return_oncepEBg_
FNDA:0,_RINvMs6_NtNtNtNtNtCshYfsMyf1ONS_19transaction_service9use_cases19process_transaction5tests42___mock_MockWalletGatewayImpl_WalletGateway18___process_movementNtB6_11Expectation12return_constpEBg_
FNDA:0,_RINvMs6_NtNtNtNtNtCshYfsMyf1ONS_19transaction_service9use_cases19process_transaction5tests42___mock_MockWalletGatewayImpl_WalletGateway18___process_movementNtB6_11Expectation12returning_stpEBg_
FNDA:0,_RINvMs6_NtNtNtNtNtCshYfsMyf1ONS_19transaction_service9use_cases19process_transaction5tests42___mock_MockWalletGatewayImpl_WalletGateway18___process_movementNtB6_11Expectation14return_once_stpEBg_
FNDA:0,_RINvMs6_NtNtNtNtNtCshYfsMyf1ONS_19transaction_service9use_cases19process_transaction5tests42___mock_MockWalletGatewayImpl_WalletGateway18___process_movementNtB6_11Expectation15return_const_stpEBg_
FNDA:0,_RINvMs6_NtNtNtNtNtCshYfsMyf1ONS_19transaction_service9use_cases19process_transaction5tests42___mock_MockWalletGatewayImpl_WalletGateway18___process_movementNtB6_11Expectation4withpEBg_
FNDA:0,_RINvMs6_NtNtNtNtNtCshYfsMyf1ONS_19transaction_service9use_cases19process_transaction5tests42___mock_MockWalletGatewayImpl_WalletGateway18___process_movementNtB6_11Expectation5withfpEBg_
FNDA:0,_RINvMs6_NtNtNtNtNtCshYfsMyf1ONS_19transaction_service9use_cases19process_transaction5tests42___mock_MockWalletGatewayImpl_WalletGateway18___process_movementNtB6_11Expectation8withf_stpEBg_
FNDA:0,_RINvMs6_NtNtNtNtNtCshYfsMyf1ONS_19transaction_service9use_cases19process_transaction5tests58___mock_MockTransactionRepositoryImpl_TransactionRepository12___find_by_idNtB6_11Expectation11return_oncepEBg_
FNDA:0,_RINvMs6_NtNtNtNtNtCshYfsMyf1ONS_19transaction_service9use_cases19process_transaction5tests58___mock_MockTransactionRepositoryImpl_TransactionRepository12___find_by_idNtB6_11Expectation12return_constpEBg_
FNDA:0,_RINvMs6_NtNtNtNtNtCshYfsMyf1ONS_19transaction_service9use_cases19process_transaction5tests58___mock_MockTransactionRepositoryImpl_TransactionRepository12___find_by_idNtB6_11Expectation12returning_stpEBg_
FNDA:0,_RINvMs6_NtNtNtNtNtCshYfsMyf1ONS_19transaction_service9use_cases19process_transaction5tests58___mock_MockTransactionRepositoryImpl_TransactionRepository12___find_by_idNtB6_11Expectation14return_once_stpEBg_
FNDA:0,_RINvMs6_NtNtNtNtNtCshYfsMyf1ONS_19transaction_service9use_cases19process_transaction5tests58___mock_MockTransactionRepositoryImpl_TransactionRepository12___find_by_idNtB6_11Expectation15return_const_stpEBg_
FNDA:0,_RINvMs6_NtNtNtNtNtCshYfsMyf1ONS_19transaction_service9use_cases19process_transaction5tests58___mock_MockTransactionRepositoryImpl_TransactionRepository12___find_by_idNtB6_11Expectation4withpEBg_
FNDA:0,_RINvMs6_NtNtNtNtNtCshYfsMyf1ONS_19transaction_service9use_cases19process_transaction5tests58___mock_MockTransactionRepositoryImpl_TransactionRepository12___find_by_idNtB6_11Expectation5timespEBg_
FNDA:0,_RINvMs6_NtNtNtNtNtCshYfsMyf1ONS_19transaction_service9use_cases19process_transaction5tests58___mock_MockTransactionRepositoryImpl_TransactionRepository12___find_by_idNtB6_11Expectation5withfpEBg_
FNDA:0,_RINvMs6_NtNtNtNtNtCshYfsMyf1ONS_19transaction_service9use_cases19process_transaction5tests58___mock_MockTransactionRepositoryImpl_TransactionRepository12___find_by_idNtB6_11Expectation8withf_stpEBg_
FNDA:0,_RINvMs6_NtNtNtNtNtCshYfsMyf1ONS_19transaction_service9use_cases19process_transaction5tests58___mock_MockTransactionRepositoryImpl_TransactionRepository12___find_by_idNtB6_11Expectation9returningpEBg_
FNDA:0,_RINvMs6_NtNtNtNtNtCshYfsMyf1ONS_19transaction_service9use_cases19process_transaction5tests58___mock_MockTransactionRepositoryImpl_TransactionRepository19___find_by_wallet_idNtB6_11Expectation11return_oncepEBg_
FNDA:0,_RINvMs6_NtNtNtNtNtCshYfsMyf1ONS_19transaction_service9use_cases19process_transaction5tests58___mock_MockTransactionRepositoryImpl_TransactionRepository19___find_by_wallet_idNtB6_11Expectation12return_constpEBg_
FNDA:0,_RINvMs6_NtNtNtNtNtCshYfsMyf1ONS_19transaction_service9use_cases19process_transaction5tests58___mock_MockTransactionRepositoryImpl_TransactionRepository19___find_by_wallet_idNtB6_11Expectation12returning_stpEBg_
FNDA:0,_RINvMs6_NtNtNtNtNtCshYfsMyf1ONS_19transaction_service9use_cases19process_transaction5tests58___mock_MockTransactionRepositoryImpl_TransactionRepository19___find_by_wallet_idNtB6_11Expectation14return_once_stpEBg_
FNDA:0,_RINvMs6_NtNtNtNtNtCshYfsMyf1ONS_19transaction_service9use_cases19process_transaction5tests58___mock_MockTransactionRepositoryImpl_TransactionRepository19___find_by_wallet_idNtB6_11Expectation15return_const_stpEBg_
FNDA:0,_RINvMs6_NtNtNtNtNtCshYfsMyf1ONS_19transaction_service9use_cases19process_transaction5tests58___mock_MockTransactionRepositoryImpl_TransactionRepository19___find_by_wallet_idNtB6_11Expectation4withpEBg_
FNDA:0,_RINvMs6_NtNtNtNtNtCshYfsMyf1ONS_19transaction_service9use_cases19process_transaction5tests58___mock_MockTransactionRepositoryImpl_TransactionRepository19___find_by_wallet_idNtB6_11Expectation5timespEBg_
FNDA:0,_RINvMs6_NtNtNtNtNtCshYfsMyf1ONS_19transaction_service9use_cases19process_transaction5tests58___mock_MockTransactionRepositoryImpl_TransactionRepository19___find_by_wallet_idNtB6_11Expectation5withfpEBg_
FNDA:0,_RINvMs6_NtNtNtNtNtCshYfsMyf1ONS_19transaction_service9use_cases19process_transaction5tests58___mock_MockTransactionRepositoryImpl_TransactionRepository19___find_by_wallet_idNtB6_11Expectation8withf_stpEBg_
FNDA:0,_RINvMs6_NtNtNtNtNtCshYfsMyf1ONS_19transaction_service9use_cases19process_transaction5tests58___mock_MockTransactionRepositoryImpl_TransactionRepository19___find_by_wallet_idNtB6_11Expectation9returningpEBg_
FNDA:0,_RINvMs6_NtNtNtNtNtCshYfsMyf1ONS_19transaction_service9use_cases19process_transaction5tests58___mock_MockTransactionRepositoryImpl_TransactionRepository24___find_by_correlation_idNtB6_11Expectation11return_oncepEBg_
FNDA:0,_RINvMs6_NtNtNtNtNtCshYfsMyf1ONS_19transaction_service9use_cases19process_transaction5tests58___mock_MockTransactionRepositoryImpl_TransactionRepository24___find_by_correlation_idNtB6_11Expectation12return_constpEBg_
FNDA:0,_RINvMs6_NtNtNtNtNtCshYfsMyf1ONS_19transaction_service9use_cases19process_transaction5tests58___mock_MockTransactionRepositoryImpl_TransactionRepository24___find_by_correlation_idNtB6_11Expectation12returning_stpEBg_
FNDA:0,_RINvMs6_NtNtNtNtNtCshYfsMyf1ONS_19transaction_service9use_cases19process_transaction5tests58___mock_MockTransactionRepositoryImpl_TransactionRepository24___find_by_correlation_idNtB6_11Expectation14return_once_stpEBg_
FNDA:0,_RINvMs6_NtNtNtNtNtCshYfsMyf1ONS_19transaction_service9use_cases19process_transaction5tests58___mock_MockTransactionRepositoryImpl_TransactionRepository24___find_by_correlation_idNtB6_11Expectation15return_const_stpEBg_
FNDA:0,_RINvMs6_NtNtNtNtNtCshYfsMyf1ONS_19transaction_service9use_cases19process_transaction5tests58___mock_MockTransactionRepositoryImpl_TransactionRepository24___find_by_correlation_idNtB6_11Expectation5withfpEBg_
FNDA:0,_RINvMs6_NtNtNtNtNtCshYfsMyf1ONS_19transaction_service9use_cases19process_transaction5tests58___mock_MockTransactionRepositoryImpl_TransactionRepository24___find_by_correlation_idNtB6_11Expectation8withf_stpEBg_
FNDA:0,_RINvMs6_NtNtNtNtNtCshYfsMyf1ONS_19transaction_service9use_cases19process_transaction5tests58___mock_MockTransactionRepositoryImpl_TransactionRepository25___find_pending_older_thanNtB6_11Expectation11return_oncepEBg_
FNDA:0,_RINvMs6_NtNtNtNtNtCshYfsMyf1ONS_19transaction_service9use_cases19process_transaction5tests58___mock_MockTransactionRepositoryImpl_TransactionRepository25___find_pending_older_thanNtB6_11Expectation12return_constpEBg_
FNDA:0,_RINvMs6_NtNtNtNtNtCshYfsMyf1ONS_19transaction_service9use_cases19process_transaction5tests58___mock_MockTransactionRepositoryImpl_TransactionRepository25___find_pending_older_thanNtB6_11Expectation12returning_stpEBg_
FNDA:0,_RINvMs6_NtNtNtNtNtCshYfsMyf1ONS_19transaction_service9use_cases19process_transaction5tests58___mock_MockTransactionRepositoryImpl_TransactionRepository25___find_pending_older_thanNtB6_11Expectation14return_once_stpEBg_
FNDA:0,_RINvMs6_NtNtNtNtNtCshYfsMyf1ONS_19transaction_service9use_cases19process_transaction5tests58___mock_MockTransactionRepositoryImpl_TransactionRepository25___find_pending_older_thanNtB6_11Expectation15return_const_stpEBg_
FNDA:0,_RINvMs6_NtNtNtNtNtCshYfsMyf1ONS_19transaction_service9use_cases19process_transaction5tests58___mock_MockTransactionRepositoryImpl_TransactionRepository25___find_pending_older_thanNtB6_11Expectation4withpEBg_
FNDA:0,_RINvMs6_NtNtNtNtNtCshYfsMyf1ONS_19transaction_service9use_cases19process_transaction5tests58___mock_MockTransactionRepositoryImpl_TransactionRepository25___find_pending_older_thanNtB6_11Expectation5timespEBg_
FNDA:0,_RINvMs6_NtNtNtNtNtCshYfsMyf1ONS_19transaction_service9use_cases19process_transaction5tests58___mock_MockTransactionRepositoryImpl_TransactionRepository25___find_pending_older_thanNtB6_11Expectation5withfpEBg_
FNDA:0,_RINvMs6_NtNtNtNtNtCshYfsMyf1ONS_19transaction_service9use_cases19process_transaction5tests58___mock_MockTransactionRepositoryImpl_TransactionRepository25___find_pending_older_thanNtB6_11Expectation8withf_stpEBg_
FNDA:0,_RINvMs6_NtNtNtNtNtCshYfsMyf1ONS_19transaction_service9use_cases19process_transaction5tests58___mock_MockTransactionRepositoryImpl_TransactionRepository25___find_pending_older_thanNtB6_11Expectation9returningpEBg_
FNDA:0,_RINvMs6_NtNtNtNtNtCshYfsMyf1ONS_19transaction_service9use_cases19process_transaction5tests58___mock_MockTransactionRepositoryImpl_TransactionRepository6___saveNtB6_11Expectation11return_oncepEBg_
FNDA:0,_RINvMs6_NtNtNtNtNtCshYfsMyf1ONS_19transaction_service9use_cases19process_transaction5tests58___mock_MockTransactionRepositoryImpl_TransactionRepository6___saveNtB6_11Expectation12return_constpEBg_
FNDA:0,_RINvMs6_NtNtNtNtNtCshYfsMyf1ONS_19transaction_service9use_cases19process_transaction5tests58___mock_MockTransactionRepositoryImpl_TransactionRepository6___saveNtB6_11Expectation12returning_stpEBg_
FNDA:0,_RINvMs6_NtNtNtNtNtCshYfsMyf1ONS_19transaction_service9use_cases19process_transaction5tests58___mock_MockTransactionRepositoryImpl_TransactionRepository6___saveNtB6_11Expectation14return_once_stpEBg_
FNDA:0,_RINvMs6_NtNtNtNtNtCshYfsMyf1ONS_19transaction_service9use_cases19process_transaction5tests58___mock_MockTransactionRepositoryImpl_TransactionRepository6___saveNtB6_11Expectation15return_const_stpEBg_
FNDA:0,_RINvMs6_NtNtNtNtNtCshYfsMyf1ONS_19transaction_service9use_cases19process_transaction5tests58___mock_MockTransactionRepositoryImpl_TransactionRepository6___saveNtB6_11Expectation4withpEBg_
FNDA:0,_RINvMs6_NtNtNtNtNtCshYfsMyf1ONS_19transaction_service9use_cases19process_transaction5tests58___mock_MockTransactionRepositoryImpl_TransactionRepository6___saveNtB6_11Expectation5withfpEBg_
FNDA:0,_RINvMs6_NtNtNtNtNtCshYfsMyf1ONS_19transaction_service9use_cases19process_transaction5tests58___mock_MockTransactionRepositoryImpl_TransactionRepository6___saveNtB6_11Expectation8withf_stpEBg_
FNDA:0,_RINvMs6_NtNtNtNtNtCshYfsMyf1ONS_19transaction_service9use_cases19process_transaction5tests58___mock_MockTransactionRepositoryImpl_TransactionRepository8___updateNtB6_11Expectation11return_oncepEBg_
FNDA:0,_RINvMs6_NtNtNtNtNtCshYfsMyf1ONS_19transaction_service9use_cases19process_transaction5tests58___mock_MockTransactionRepositoryImpl_TransactionRepository8___updateNtB6_11Expectation12return_constpEBg_
FNDA:0,_RINvMs6_NtNtNtNtNtCshYfsMyf1ONS_19transaction_service9use_cases19process_transaction5tests58___mock_MockTransactionRepositoryImpl_TransactionRepository8___updateNtB6_11Expectation12returning_stpEBg_
FNDA:0,_RINvMs6_NtNtNtNtNtCshYfsMyf1ONS_19transaction_service9use_cases19process_transaction5tests58___mock_MockTransactionRepositoryImpl_TransactionRepository8___updateNtB6_11Expectation14return_once_stpEBg_
FNDA:0,_RINvMs6_NtNtNtNtNtCshYfsMyf1ONS_19transaction_service9use_cases19process_transaction5tests58___mock_MockTransactionRepositoryImpl_TransactionRepository8___updateNtB6_11Expectation15return_const_stpEBg_
FNDA:0,_RINvMs6_NtNtNtNtNtCshYfsMyf1ONS_19transaction_service9use_cases19process_transaction5tests58___mock_MockTransactionRepositoryImpl_TransactionRepository8___updateNtB6_11Expectation5withfpEBg_
FNDA:0,_RINvMs6_NtNtNtNtNtCshYfsMyf1ONS_19transaction_service9use_cases19process_transaction5tests58___mock_MockTransactionRepositoryImpl_TransactionRepository8___updateNtB6_11Expectation8withf_stpEBg_
FNDA:0,_RNCINvMs6_NtNtNtNtNtCshYfsMyf1ONS_19transaction_service9use_cases19process_transaction5tests42___mock_MockWalletGatewayImpl_WalletGateway18___process_movementNtB8_11Expectation12return_constpE0Bi_
FNDA:0,_RNCINvMs6_NtNtNtNtNtCshYfsMyf1ONS_19transaction_service9use_cases19process_transaction5tests42___mock_MockWalletGatewayImpl_WalletGateway18___process_movementNtB8_11Expectation15return_const_stpE0Bi_
FNDA:0,_RNCINvMs6_NtNtNtNtNtCshYfsMyf1ONS_19transaction_service9use_cases19process_transaction5tests58___mock_MockTransactionRepositoryImpl_TransactionRepository12___find_by_idNtB8_11Expectation12return_constpE0Bi_
FNDA:0,_RNCINvMs6_NtNtNtNtNtCshYfsMyf1ONS_19transaction_service9use_cases19process_transaction5tests58___mock_MockTransactionRepositoryImpl_TransactionRepository12___find_by_idNtB8_11Expectation15return_const_stpE0Bi_
FNDA:0,_RNCINvMs6_NtNtNtNtNtCshYfsMyf1ONS_19transaction_service9use_cases19process_transaction5tests58___mock_MockTransactionRepositoryImpl_TransactionRepository19___find_by_wallet_idNtB8_11Expectation12return_constpE0Bi_
FNDA:0,_RNCINvMs6_NtNtNtNtNtCshYfsMyf1ONS_19transaction_service9use_cases19process_transaction5tests58___mock_MockTransactionRepositoryImpl_TransactionRepository19___find_by_wallet_idNtB8_11Expectation15return_const_stpE0Bi_
FNDA:0,_RNCINvMs6_NtNtNtNtNtCshYfsMyf1ONS_19transaction_service9use_cases19process_transaction5tests58___mock_MockTransactionRepositoryImpl_TransactionRepository24___find_by_correlation_idNtB8_11Expectation12return_constpE0Bi_
FNDA:0,_RNCINvMs6_NtNtNtNtNtCshYfsMyf1ONS_19transaction_service9use_cases19process_transaction5tests58___mock_MockTransactionRepositoryImpl_TransactionRepository24___find_by_correlation_idNtB8_11Expectation15return_const_stpE0Bi_
FNDA:0,_RNCINvMs6_NtNtNtNtNtCshYfsMyf1ONS_19transaction_service9use_cases19process_transaction5tests58___mock_MockTransactionRepositoryImpl_TransactionRepository25___find_pending_older_thanNtB8_11Expectation12return_constpE0Bi_
FNDA:0,_RNCINvMs6_NtNtNtNtNtCshYfsMyf1ONS_19transaction_service9use_cases19process_transaction5tests58___mock_MockTransactionRepositoryImpl_TransactionRepository25___find_pending_older_thanNtB8_11Expectation15return_const_stpE0Bi_
FNDA:0,_RNCINvMs6_NtNtNtNtNtCshYfsMyf1ONS_19transaction_service9use_cases19process_transaction5tests58___mock_MockTransactionRepositoryImpl_TransactionRepository6___saveNtB8_11Expectation12return_constpE0Bi_
FNDA:0,_RNCINvMs6_NtNtNtNtNtCshYfsMyf1ONS_19transaction_service9use_cases19process_transaction5tests58___mock_MockTransactionRepositoryImpl_TransactionRepository6___saveNtB8_11Expectation15return_const_stpE0Bi_
FNDA:0,_RNCINvMs6_NtNtNtNtNtCshYfsMyf1ONS_19transaction_service9use_cases19process_transaction5tests58___mock_MockTransactionRepositoryImpl_TransactionRepository8___updateNtB8_11Expectation12return_constpE0Bi_
FNDA:0,_RNCINvMs6_NtNtNtNtNtCshYfsMyf1ONS_19transaction_service9use_cases19process_transaction5tests58___mock_MockTransactionRepositoryImpl_TransactionRepository8___updateNtB8_11Expectation15return_const_stpE0Bi_
FNDA:0,_RNvMs0_NtNtNtCshYfsMyf1ONS_19transaction_service9use_cases19process_transaction5testsNtB5_51MockTransactionRepositoryImpl_TransactionRepository10checkpoint
FNDA:0,_RNvMs1_NtNtNtCshYfsMyf1ONS_19transaction_service9use_cases19process_transaction5testsNtB5_29MockTransactionRepositoryImpl10checkpoint
FNDA:0,_RNvMs2_NtNtNtCshYfsMyf1ONS_19transaction_service9use_cases19process_transaction5testsNtB5_29MockTransactionRepositoryImpl17expect_find_by_id
FNDA:0,_RNvMs2_NtNtNtCshYfsMyf1ONS_19transaction_service9use_cases19process_transaction5testsNtB5_29MockTransactionRepositoryImpl24expect_find_by_wallet_id
FNDA:0,_RNvMs2_NtNtNtCshYfsMyf1ONS_19transaction_service9use_cases19process_transaction5testsNtB5_29MockTransactionRepositoryImpl30expect_find_pending_older_than
FNDA:0,_RNvMs4_NtNtNtNtNtCshYfsMyf1ONS_19transaction_service9use_cases19process_transaction5tests42___mock_MockWalletGatewayImpl_WalletGateway18___process_movementNtB5_6Common11in_sequence
FNDA:0,_RNvMs4_NtNtNtNtNtCshYfsMyf1ONS_19transaction_service9use_cases19process_transaction5tests42___mock_MockWalletGatewayImpl_WalletGateway18___process_movementNtB5_6Common5never
FNDA:0,_RNvMs4_NtNtNtNtNtCshYfsMyf1ONS_19transaction_service9use_cases19process_transaction5tests58___mock_MockTransactionRepositoryImpl_TransactionRepository12___find_by_idNtB5_6Common11in_sequence
FNDA:0,_RNvMs4_NtNtNtNtNtCshYfsMyf1ONS_19transaction_service9use_cases19process_transaction5tests58___mock_MockTransactionRepositoryImpl_TransactionRepository12___find_by_idNtB5_6Common5never
FNDA:0,_RNvMs4_NtNtNtNtNtCshYfsMyf1ONS_19transaction_service9use_cases19process_transaction5tests58___mock_MockTransactionRepositoryImpl_TransactionRepository19___find_by_wallet_idNtB5_6Common11in_sequence
FNDA:0,_RNvMs4_NtNtNtNtNtCshYfsMyf1ONS_19transaction_service9use_cases19process_transaction5tests58___mock_MockTransactionRepositoryImpl_TransactionRepository19___find_by_wallet_idNtB5_6Common5never
FNDA:0,_RNvMs4_NtNtNtNtNtCshYfsMyf1ONS_19transaction_service9use_cases19process_transaction5tests58___mock_MockTransactionRepositoryImpl_TransactionRepository24___find_by_correlation_idNtB5_6Common11in_sequence
FNDA:0,_RNvMs4_NtNtNtNtNtCshYfsMyf1ONS_19transaction_service9use_cases19process_transaction5tests58___mock_MockTransactionRepositoryImpl_TransactionRepository24___find_by_correlation_idNtB5_6Common5never
FNDA:0,_RNvMs4_NtNtNtNtNtCshYfsMyf1ONS_19transaction_service9use_cases19process_transaction5tests58___mock_MockTransactionRepositoryImpl_TransactionRepository25___find_pending_older_thanNtB5_6Common11in_sequence
FNDA:0,_RNvMs4_NtNtNtNtNtCshYfsMyf1ONS_19transaction_service9use_cases19process_transaction5tests58___mock_MockTransactionRepositoryImpl_TransactionRepository25___find_pending_older_thanNtB5_6Common5never
FNDA:0,_RNvMs4_NtNtNtNtNtCshYfsMyf1ONS_19transaction_service9use_cases19process_transaction5tests58___mock_MockTransactionRepositoryImpl_TransactionRepository6___saveNtB5_6Common11in_sequence
FNDA:0,_RNvMs4_NtNtNtNtNtCshYfsMyf1ONS_19transaction_service9use_cases19process_transaction5tests58___mock_MockTransactionRepositoryImpl_TransactionRepository6___saveNtB5_6Common5never
FNDA:0,_RNvMs4_NtNtNtNtNtCshYfsMyf1ONS_19transaction_service9use_cases19process_transaction5tests58___mock_MockTransactionRepositoryImpl_TransactionRepository8___updateNtB5_6Common11in_sequence
FNDA:0,_RNvMs4_NtNtNtNtNtCshYfsMyf1ONS_19transaction_service9use_cases19process_transaction5tests58___mock_MockTransactionRepositoryImpl_TransactionRepository8___updateNtB5_6Common5never
FNDA:0,_RNvMs6_NtNtNtCshYfsMyf1ONS_19transaction_service9use_cases19process_transaction5testsNtB5_35MockWalletGatewayImpl_WalletGateway10checkpoint
FNDA:0,_RNvMs6_NtNtNtNtNtCshYfsMyf1ONS_19transaction_service9use_cases19process_transaction5tests42___mock_MockWalletGatewayImpl_WalletGateway18___process_movementNtB5_11Expectation11in_sequence
FNDA:0,_RNvMs6_NtNtNtNtNtCshYfsMyf1ONS_19transaction_service9use_cases19process_transaction5tests42___mock_MockWalletGatewayImpl_WalletGateway18___process_movementNtB5_11Expectation3new
FNDA:0,_RNvMs6_NtNtNtNtNtCshYfsMyf1ONS_19transaction_service9use_cases19process_transaction5tests42___mock_MockWalletGatewayImpl_WalletGateway18___process_movementNtB5_11Expectation4once
FNDA:0,_RNvMs6_NtNtNtNtNtCshYfsMyf1ONS_19transaction_service9use_cases19process_transaction5tests42___mock_MockWalletGatewayImpl_WalletGateway18___process_movementNtB5_11Expectation5never
FNDA:0,_RNvMs6_NtNtNtNtNtCshYfsMyf1ONS_19transaction_service9use_cases19process_transaction5tests58___mock_MockTransactionRepositoryImpl_TransactionRepository12___find_by_idNtB5_11Expectation11in_sequence
FNDA:0,_RNvMs6_NtNtNtNtNtCshYfsMyf1ONS_19transaction_service9use_cases19process_transaction5tests58___mock_MockTransactionRepositoryImpl_TransactionRepository12___find_by_idNtB5_11Expectation3new
FNDA:0,_RNvMs6_NtNtNtNtNtCshYfsMyf1ONS_19transaction_service9use_cases19process_transaction5tests58___mock_MockTransactionRepositoryImpl_TransactionRepository12___find_by_idNtB5_11Expectation4once
FNDA:0,_RNvMs6_NtNtNtNtNtCshYfsMyf1ONS_19transaction_service9use_cases19process_transaction5tests58___mock_MockTransactionRepositoryImpl_TransactionRepository12___find_by_idNtB5_11Expectation5never
FNDA:0,_RNvMs6_NtNtNtNtNtCshYfsMyf1ONS_19transaction_service9use_cases19process_transaction5tests58___mock_MockTransactionRepositoryImpl_TransactionRepository19___find_by_wallet_idNtB5_11Expectation11in_sequence
FNDA:0,_RNvMs6_NtNtNtNtNtCshYfsMyf1ONS_19transaction_service9use_cases19process_transaction5tests58___mock_MockTransactionRepositoryImpl_TransactionRepository19___find_by_wallet_idNtB5_11Expectation3new
FNDA:0,_RNvMs6_NtNtNtNtNtCshYfsMyf1ONS_19transaction_service9use_cases19process_transaction5tests58___mock_MockTransactionRepositoryImpl_TransactionRepository19___find_by_wallet_idNtB5_11Expectation4once
FNDA:0,_RNvMs6_NtNtNtNtNtCshYfsMyf1ONS_19transaction_service9use_cases19process_transaction5tests58___mock_MockTransactionRepositoryImpl_TransactionRepository19___find_by_wallet_idNtB5_11Expectation5never
FNDA:0,_RNvMs6_NtNtNtNtNtCshYfsMyf1ONS_19transaction_service9use_cases19process_transaction5tests58___mock_MockTransactionRepositoryImpl_TransactionRepository24___find_by_correlation_idNtB5_11Expectation11in_sequence
FNDA:0,_RNvMs6_NtNtNtNtNtCshYfsMyf1ONS_19transaction_service9use_cases19process_transaction5tests58___mock_MockTransactionRepositoryImpl_TransactionRepository24___find_by_correlation_idNtB5_11Expectation3new
FNDA:0,_RNvMs6_NtNtNtNtNtCshYfsMyf1ONS_19transaction_service9use_cases19process_transaction5tests58___mock_MockTransactionRepositoryImpl_TransactionRepository24___find_by_correlation_idNtB5_11Expectation4once
FNDA:0,_RNvMs6_NtNtNtNtNtCshYfsMyf1ONS_19transaction_service9use_cases19process_transaction5tests58___mock_MockTransactionRepositoryImpl_TransactionRepository24___find_by_correlation_idNtB5_11Expectation5never
FNDA:0,_RNvMs6_NtNtNtNtNtCshYfsMyf1ONS_19transaction_service9use_cases19process_transaction5tests58___mock_MockTransactionRepositoryImpl_TransactionRepository25___find_pending_older_thanNtB5_11Expectation11in_sequence
FNDA:0,_RNvMs6_NtNtNtNtNtCshYfsMyf1ONS_19transaction_service9use_cases19process_transaction5tests58___mock_MockTransactionRepositoryImpl_TransactionRepository25___find_pending_older_thanNtB5_11Expectation3new
FNDA:0,_RNvMs6_NtNtNtNtNtCshYfsMyf1ONS_19transaction_service9use_cases19process_transaction5tests58___mock_MockTransactionRepositoryImpl_TransactionRepository25___find_pending_older_thanNtB5_11Expectation4once
FNDA:0,_RNvMs6_NtNtNtNtNtCshYfsMyf1ONS_19transaction_service9use_cases19process_transaction5tests58___mock_MockTransactionRepositoryImpl_TransactionRepository25___find_pending_older_thanNtB5_11Expectation5never
FNDA:0,_RNvMs6_NtNtNtNtNtCshYfsMyf1ONS_19transaction_service9use_cases19process_transaction5tests58___mock_MockTransactionRepositoryImpl_TransactionRepository6___saveNtB5_11Expectation11in_sequence
FNDA:0,_RNvMs6_NtNtNtNtNtCshYfsMyf1ONS_19transaction_service9use_cases19process_transaction5tests58___mock_MockTransactionRepositoryImpl_TransactionRepository6___saveNtB5_11Expectation3new
FNDA:0,_RNvMs6_NtNtNtNtNtCshYfsMyf1ONS_19transaction_service9use_cases19process_transaction5tests58___mock_MockTransactionRepositoryImpl_TransactionRepository6___saveNtB5_11Expectation4once
FNDA:0,_RNvMs6_NtNtNtNtNtCshYfsMyf1ONS_19transaction_service9use_cases19process_transaction5tests58___mock_MockTransactionRepositoryImpl_TransactionRepository6___saveNtB5_11Expectation5never
FNDA:0,_RNvMs6_NtNtNtNtNtCshYfsMyf1ONS_19transaction_service9use_cases19process_transaction5tests58___mock_MockTransactionRepositoryImpl_TransactionRepository8___updateNtB5_11Expectation11in_sequence
FNDA:0,_RNvMs6_NtNtNtNtNtCshYfsMyf1ONS_19transaction_service9use_cases19process_transaction5tests58___mock_MockTransactionRepositoryImpl_TransactionRepository8___updateNtB5_11Expectation3new
FNDA:0,_RNvMs6_NtNtNtNtNtCshYfsMyf1ONS_19transaction_service9use_cases19process_transaction5tests58___mock_MockTransactionRepositoryImpl_TransactionRepository8___updateNtB5_11Expectation4once
FNDA:0,_RNvMs6_NtNtNtNtNtCshYfsMyf1ONS_19transaction_service9use_cases19process_transaction5tests58___mock_MockTransactionRepositoryImpl_TransactionRepository8___updateNtB5_11Expectation5never
FNDA:0,_RNvMs7_NtNtNtCshYfsMyf1ONS_19transaction_service9use_cases19process_transaction5testsNtB5_21MockWalletGatewayImpl10checkpoint
FNDA:0,_RNvMs8_NtNtNtNtNtCshYfsMyf1ONS_19transaction_service9use_cases19process_transaction5tests42___mock_MockWalletGatewayImpl_WalletGateway18___process_movementNtB5_12Expectations10checkpoint
FNDA:0,_RNvMs8_NtNtNtNtNtCshYfsMyf1ONS_19transaction_service9use_cases19process_transaction5tests58___mock_MockTransactionRepositoryImpl_TransactionRepository12___find_by_idNtB5_12Expectations10checkpoint
FNDA:0,_RNvMs8_NtNtNtNtNtCshYfsMyf1ONS_19transaction_service9use_cases19process_transaction5tests58___mock_MockTransactionRepositoryImpl_TransactionRepository12___find_by_idNtB5_12Expectations6expect
FNDA:0,_RNvMs8_NtNtNtNtNtCshYfsMyf1ONS_19transaction_service9use_cases19process_transaction5tests58___mock_MockTransactionRepositoryImpl_TransactionRepository19___find_by_wallet_idNtB5_12Expectations10checkpoint
FNDA:0,_RNvMs8_NtNtNtNtNtCshYfsMyf1ONS_19transaction_service9use_cases19process_transaction5tests58___mock_MockTransactionRepositoryImpl_TransactionRepository19___find_by_wallet_idNtB5_12Expectations6expect
FNDA:0,_RNvMs8_NtNtNtNtNtCshYfsMyf1ONS_19transaction_service9use_cases19process_transaction5tests58___mock_MockTransactionRepositoryImpl_TransactionRepository24___find_by_correlation_idNtB5_12Expectations10checkpoint
FNDA:0,_RNvMs8_NtNtNtNtNtCshYfsMyf1ONS_19transaction_service9use_cases19process_transaction5tests58___mock_MockTransactionRepositoryImpl_TransactionRepository25___find_pending_older_thanNtB5_12Expectations10checkpoint
FNDA:0,_RNvMs8_NtNtNtNtNtCshYfsMyf1ONS_19transaction_service9use_cases19process_transaction5tests58___mock_MockTransactionRepositoryImpl_TransactionRepository25___find_pending_older_thanNtB5_12Expectations6expect
FNDA:0,_RNvMs8_NtNtNtNtNtCshYfsMyf1ONS_19transaction_service9use_cases19process_transaction5tests58___mock_MockTransactionRepositoryImpl_TransactionRepository6___saveNtB5_12Expectations10checkpoint
FNDA:0,_RNvMs8_NtNtNtNtNtCshYfsMyf1ONS_19transaction_service9use_cases19process_transaction5tests58___mock_MockTransactionRepositoryImpl_TransactionRepository8___updateNtB5_12Expectations10checkpoint
FNDA:0,_RNvXs1_NtNtNtNtNtCshYfsMyf1ONS_19transaction_service9use_cases19process_transaction5tests58___mock_MockTransactionRepositoryImpl_TransactionRepository12___find_by_idNtB5_7MatcherNtNtCs8CEGv8KHL4Y_4core7default7Default7default
FNDA:0,_RNvXs1_NtNtNtNtNtCshYfsMyf1ONS_19transaction_service9use_cases19process_transaction5tests58___mock_MockTransactionRepositoryImpl_TransactionRepository19___find_by_wallet_idNtB5_7MatcherNtNtCs8CEGv8KHL4Y_4core7default7Default7default
FNDA:0,_RNvXs1_NtNtNtNtNtCshYfsMyf1ONS_19transaction_service9use_cases19process_transaction5tests58___mock_MockTransactionRepositoryImpl_TransactionRepository25___find_pending_older_thanNtB5_7MatcherNtNtCs8CEGv8KHL4Y_4core7default7Default7default
FNDA:0,_RNvXs3_NtNtNtNtNtCshYfsMyf1ONS_19transaction_service9use_cases19process_transaction5tests58___mock_MockTransactionRepositoryImpl_TransactionRepository12___find_by_idNtB5_6CommonNtNtCs8CEGv8KHL4Y_4core7default7Default7default
FNDA:0,_RNvXs3_NtNtNtNtNtCshYfsMyf1ONS_19transaction_service9use_cases19process_transaction5tests58___mock_MockTransactionRepositoryImpl_TransactionRepository19___find_by_wallet_idNtB5_6CommonNtNtCs8CEGv8KHL4Y_4core7default7Default7default
FNDA:0,_RNvXs3_NtNtNtNtNtCshYfsMyf1ONS_19transaction_service9use_cases19process_transaction5tests58___mock_MockTransactionRepositoryImpl_TransactionRepository25___find_pending_older_thanNtB5_6CommonNtNtCs8CEGv8KHL4Y_4core7default7Default7default
FNDA:0,_RNvXs7_NtNtNtNtNtCshYfsMyf1ONS_19transaction_service9use_cases19process_transaction5tests58___mock_MockTransactionRepositoryImpl_TransactionRepository12___find_by_idNtB5_11ExpectationNtNtCs8CEGv8KHL4Y_4core7default7Default7default
FNDA:0,_RNvXs7_NtNtNtNtNtCshYfsMyf1ONS_19transaction_service9use_cases19process_transaction5tests58___mock_MockTransactionRepositoryImpl_TransactionRepository19___find_by_wallet_idNtB5_11ExpectationNtNtCs8CEGv8KHL4Y_4core7default7Default7default
FNDA:0,_RNvXs7_NtNtNtNtNtCshYfsMyf1ONS_19transaction_service9use_cases19process_transaction5tests58___mock_MockTransactionRepositoryImpl_TransactionRepository25___find_pending_older_thanNtB5_11ExpectationNtNtCs8CEGv8KHL4Y_4core7default7Default7default
FNDA:0,_RNvXs_NtNtNtNtNtCshYfsMyf1ONS_19transaction_service9use_cases19process_transaction5tests58___mock_MockTransactionRepositoryImpl_TransactionRepository12___find_by_idNtB4_5RfuncNtNtCs8CEGv8KHL4Y_4core7default7Default7default
FNDA:0,_RNvXs_NtNtNtNtNtCshYfsMyf1ONS_19transaction_service9use_cases19process_transaction5tests58___mock_MockTransactionRepositoryImpl_TransactionRepository19___find_by_wallet_idNtB4_5RfuncNtNtCs8CEGv8KHL4Y_4core7default7Default7default
FNDA:0,_RNvXs_NtNtNtNtNtCshYfsMyf1ONS_19transaction_service9use_cases19process_transaction5tests58___mock_MockTransactionRepositoryImpl_TransactionRepository25___find_pending_older_thanNtB4_5RfuncNtNtCs8CEGv8KHL4Y_4core7default7Default7default
FNDA:0,_RNvMNtNtNtNtNtCshYfsMyf1ONS_19transaction_service9use_cases19process_transaction5tests58___mock_MockTransactionRepositoryImpl_TransactionRepository19___find_by_wallet_idNtB2_5Rfunc8call_mut
FNDA:0,_RNvMs0_NtNtNtNtNtCshYfsMyf1ONS_19transaction_service9use_cases19process_transaction5tests58___mock_MockTransactionRepositoryImpl_TransactionRepository19___find_by_wallet_idNtB5_7Matcher7matches
FNDA:0,_RNvMs4_NtNtNtNtNtCshYfsMyf1ONS_19transaction_service9use_cases19process_transaction5tests58___mock_MockTransactionRepositoryImpl_TransactionRepository19___find_by_wallet_idNtB5_6Common15called_sequence
FNDA:0,_RNvMs4_NtNtNtNtNtCshYfsMyf1ONS_19transaction_service9use_cases19process_transaction5tests58___mock_MockTransactionRepositoryImpl_TransactionRepository19___find_by_wallet_idNtB5_6Common16satisfy_sequence
FNDA:0,_RNvMs4_NtNtNtNtNtCshYfsMyf1ONS_19transaction_service9use_cases19process_transaction5tests58___mock_MockTransactionRepositoryImpl_TransactionRepository19___find_by_wallet_idNtB5_6Common19is_history_sequence
FNDA:0,_RNvMs4_NtNtNtNtNtCshYfsMyf1ONS_19transaction_service9use_cases19process_transaction5tests58___mock_MockTransactionRepositoryImpl_TransactionRepository19___find_by_wallet_idNtB5_6Common7is_done
FNDA:0,_RNvMs4_NtNtNtNtNtCshYfsMyf1ONS_19transaction_service9use_cases19process_transaction5tests58___mock_MockTransactionRepositoryImpl_TransactionRepository19___find_by_wallet_idNtB5_6Common7matches
FNDA:0,_RNvMs6_NtNtNtNtNtCshYfsMyf1ONS_19transaction_service9use_cases19process_transaction5tests58___mock_MockTransactionRepositoryImpl_TransactionRepository19___find_by_wallet_idNtB5_11Expectation4call
FNDA:0,_RNvMs6_NtNtNtNtNtCshYfsMyf1ONS_19transaction_service9use_cases19process_transaction5tests58___mock_MockTransactionRepositoryImpl_TransactionRepository19___find_by_wallet_idNtB5_11Expectation7is_done
FNDA:0,_RNvMs6_NtNtNtNtNtCshYfsMyf1ONS_19transaction_service9use_cases19process_transaction5tests58___mock_MockTransactionRepositoryImpl_TransactionRepository19___find_by_wallet_idNtB5_11Expectation7matches
FNDA:3,_RNvMs8_NtNtNtNtNtCshYfsMyf1ONS_19transaction_service9use_cases19process_transaction5tests58___mock_MockTransactionRepositoryImpl_TransactionRepository19___find_by_wallet_idNtB5_12Expectations3new
FNDA:0,_RNvMsa_NtNtNtNtNtCshYfsMyf1ONS_19transaction_service9use_cases19process_transaction5tests58___mock_MockTransactionRepositoryImpl_TransactionRepository19___find_by_wallet_idNtB5_12Expectations4call
FNDA:0,_RNvXs2_NtNtNtNtNtCshYfsMyf1ONS_19transaction_service9use_cases19process_transaction5tests58___mock_MockTransactionRepositoryImpl_TransactionRepository19___find_by_wallet_idNtB5_7MatcherNtNtCs8CEGv8KHL4Y_4core3fmt7Display3fmt
FNDA:3,_RNvXs9_NtNtNtNtNtCshYfsMyf1ONS_19transaction_service9use_cases19process_transaction5tests58___mock_MockTransactionRepositoryImpl_TransactionRepository19___find_by_wallet_idNtB5_12ExpectationsNtNtCs8CEGv8KHL4Y_4core7default7Default7default
FNDA:0,_RINvMs4_NtNtNtNtNtCshYfsMyf1ONS_19transaction_service9use_cases19process_transaction5tests58___mock_MockTransactionRepositoryImpl_TransactionRepository12___find_by_idNtB6_6Common15verify_sequenceNCNvMs6_B6_NtB6_11Expectation4call0EBg_
FNDA:0,_RINvMs4_NtNtNtNtNtCshYfsMyf1ONS_19transaction_service9use_cases19process_transaction5tests58___mock_MockTransactionRepositoryImpl_TransactionRepository12___find_by_idNtB6_6Common4callNCNvMs6_B6_NtB6_11Expectation4call0EBg_
FNDA:0,_RNCINvMs4_NtNtNtNtNtCshYfsMyf1ONS_19transaction_service9use_cases19process_transaction5tests58___mock_MockTransactionRepositoryImpl_TransactionRepository12___find_by_idNtB8_6Common4callNCNvMs6_B8_NtB8_11Expectation4call0E0Bi_
FNDA:0,_RNCNvMs0_NtNtNtNtNtCshYfsMyf1ONS_19transaction_service9use_cases19process_transaction5tests58___mock_MockTransactionRepositoryImpl_TransactionRepository12___find_by_idNtB7_7Matcher7matches0Bh_
FNDA:0,_RNCNvMs6_NtNtNtNtNtCshYfsMyf1ONS_19transaction_service9use_cases19process_transaction5tests58___mock_MockTransactionRepositoryImpl_TransactionRepository12___find_by_idNtB7_11Expectation4call0Bh_
FNDA:0,_RNCNvMs6_NtNtNtNtNtCshYfsMyf1ONS_19transaction_service9use_cases19process_transaction5tests58___mock_MockTransactionRepositoryImpl_TransactionRepository12___find_by_idNtB7_11Expectation4calls_0Bh_
FNDA:0,_RNCNvMsa_NtNtNtNtNtCshYfsMyf1ONS_19transaction_service9use_cases19process_transaction5tests58___mock_MockTransactionRepositoryImpl_TransactionRepository12___find_by_idNtB7_12Expectations4call0Bh_
FNDA:0,_RNCNvMsa_NtNtNtNtNtCshYfsMyf1ONS_19transaction_service9use_cases19process_transaction5tests58___mock_MockTransactionRepositoryImpl_TransactionRepository12___find_by_idNtB7_12Expectations4calls_0Bh_
FNDA:0,_RNvMNtNtNtNtNtCshYfsMyf1ONS_19transaction_service9use_cases19process_transaction5tests58___mock_MockTransactionRepositoryImpl_TransactionRepository25___find_pending_older_thanNtB2_5Rfunc8call_mut
FNDA:0,_RNvMs0_NtNtNtNtNtCshYfsMyf1ONS_19transaction_service9use_cases19process_transaction5tests58___mock_MockTransactionRepositoryImpl_TransactionRepository25___find_pending_older_thanNtB5_7Matcher7matches
FNDA:0,_RNvMs4_NtNtNtNtNtCshYfsMyf1ONS_19transaction_service9use_cases19process_transaction5tests58___mock_MockTransactionRepositoryImpl_TransactionRepository25___find_pending_older_thanNtB5_6Common15called_sequence
FNDA:0,_RNvMs4_NtNtNtNtNtCshYfsMyf1ONS_19transaction_service9use_cases19process_transaction5tests58___mock_MockTransactionRepositoryImpl_TransactionRepository25___find_pending_older_thanNtB5_6Common16satisfy_sequence
FNDA:0,_RNvMs4_NtNtNtNtNtCshYfsMyf1ONS_19transaction_service9use_cases19process_transaction5tests58___mock_MockTransactionRepositoryImpl_TransactionRepository25___find_pending_older_thanNtB5_6Common19is_history_sequence
FNDA:0,_RNvMs4_NtNtNtNtNtCshYfsMyf1ONS_19transaction_service9use_cases19process_transaction5tests58___mock_MockTransactionRepositoryImpl_TransactionRepository25___find_pending_older_thanNtB5_6Common7is_done
FNDA:0,_RNvMs4_NtNtNtNtNtCshYfsMyf1ONS_19transaction_service9use_cases19process_transaction5tests58___mock_MockTransactionRepositoryImpl_TransactionRepository25___find_pending_older_thanNtB5_6Common7matches
FNDA:0,_RNvMs6_NtNtNtNtNtCshYfsMyf1ONS_19transaction_service9use_cases19process_transaction5tests58___mock_MockTransactionRepositoryImpl_TransactionRepository25___find_pending_older_thanNtB5_11Expectation4call
FNDA:0,_RNvMs6_NtNtNtNtNtCshYfsMyf1ONS_19transaction_service9use_cases19process_transaction5tests58___mock_MockTransactionRepositoryImpl_TransactionRepository25___find_pending_older_thanNtB5_11Expectation7is_done
FNDA:0,_RNvMs6_NtNtNtNtNtCshYfsMyf1ONS_19transaction_service9use_cases19process_transaction5tests58___mock_MockTransactionRepositoryImpl_TransactionRepository25___find_pending_older_thanNtB5_11Expectation7matches
FNDA:3,_RNvMs8_NtNtNtNtNtCshYfsMyf1ONS_19transaction_service9use_cases19process_transaction5tests58___mock_MockTransactionRepositoryImpl_TransactionRepository25___find_pending_older_thanNtB5_12Expectations3new
FNDA:0,_RNvMsa_NtNtNtNtNtCshYfsMyf1ONS_19transaction_service9use_cases19process_transaction5tests58___mock_MockTransactionRepositoryImpl_TransactionRepository25___find_pending_older_thanNtB5_12Expectations4call
FNDA:0,_RNvXs2_NtNtNtNtNtCshYfsMyf1ONS_19transaction_service9use_cases19process_transaction5tests58___mock_MockTransactionRepositoryImpl_TransactionRepository25___find_pending_older_thanNtB5_7MatcherNtNtCs8CEGv8KHL4Y_4core3fmt7Display3fmt
FNDA:3,_RNvXs9_NtNtNtNtNtCshYfsMyf1ONS_19transaction_service9use_cases19process_transaction5tests58___mock_MockTransactionRepositoryImpl_TransactionRepository25___find_pending_older_thanNtB5_12ExpectationsNtNtCs8CEGv8KHL4Y_4core7default7Default7default
FNDA:0,_RNvMNtNtNtNtNtCshYfsMyf1ONS_19transaction_service9use_cases19process_transaction5tests58___mock_MockTransactionRepositoryImpl_TransactionRepository12___find_by_idNtB2_5Rfunc8call_mut
FNDA:0,_RNvMs0_NtNtNtNtNtCshYfsMyf1ONS_19transaction_service9use_cases19process_transaction5tests58___mock_MockTransactionRepositoryImpl_TransactionRepository12___find_by_idNtB5_7Matcher7matches
FNDA:0,_RNvMs4_NtNtNtNtNtCshYfsMyf1ONS_19transaction_service9use_cases19process_transaction5tests58___mock_MockTransactionRepositoryImpl_TransactionRepository12___find_by_idNtB5_6Common15called_sequence
FNDA:0,_RNvMs4_NtNtNtNtNtCshYfsMyf1ONS_19transaction_service9use_cases19process_transaction5tests58___mock_MockTransactionRepositoryImpl_TransactionRepository12___find_by_idNtB5_6Common16satisfy_sequence
FNDA:0,_RNvMs4_NtNtNtNtNtCshYfsMyf1ONS_19transaction_service9use_cases19process_transaction5tests58___mock_MockTransactionRepositoryImpl_TransactionRepository12___find_by_idNtB5_6Common19is_history_sequence
FNDA:0,_RNvMs4_NtNtNtNtNtCshYfsMyf1ONS_19transaction_service9use_cases19process_transaction5tests58___mock_MockTransactionRepositoryImpl_TransactionRepository12___find_by_idNtB5_6Common7is_done
FNDA:0,_RNvMs4_NtNtNtNtNtCshYfsMyf1ONS_19transaction_service9use_cases19process_transaction5tests58___mock_MockTransactionRepositoryImpl_TransactionRepository12___find_by_idNtB5_6Common7matches
FNDA:0,_RNvMs6_NtNtNtNtNtCshYfsMyf1ONS_19transaction_service9use_cases19process_transaction5tests58___mock_MockTransactionRepositoryImpl_TransactionRepository12___find_by_idNtB5_11Expectation4call
FNDA:0,_RNvMs6_NtNtNtNtNtCshYfsMyf1ONS_19transaction_service9use_cases19process_transaction5tests58___mock_MockTransactionRepositoryImpl_TransactionRepository12___find_by_idNtB5_11Expectation7is_done
FNDA:0,_RNvMs6_NtNtNtNtNtCshYfsMyf1ONS_19transaction_service9use_cases19process_transaction5tests58___mock_MockTransactionRepositoryImpl_TransactionRepository12___find_by_idNtB5_11Expectation7matches
FNDA:3,_RNvMs8_NtNtNtNtNtCshYfsMyf1ONS_19transaction_service9use_cases19process_transaction5tests58___mock_MockTransactionRepositoryImpl_TransactionRepository12___find_by_idNtB5_12Expectations3new
FNDA:0,_RNvMsa_NtNtNtNtNtCshYfsMyf1ONS_19transaction_service9use_cases19process_transaction5tests58___mock_MockTransactionRepositoryImpl_TransactionRepository12___find_by_idNtB5_12Expectations4call
FNDA:0,_RNvXs2_NtNtNtNtNtCshYfsMyf1ONS_19transaction_service9use_cases19process_transaction5tests58___mock_MockTransactionRepositoryImpl_TransactionRepository12___find_by_idNtB5_7MatcherNtNtCs8CEGv8KHL4Y_4core3fmt7Display3fmt
FNDA:3,_RNvXs9_NtNtNtNtNtCshYfsMyf1ONS_19transaction_service9use_cases19process_transaction5tests58___mock_MockTransactionRepositoryImpl_TransactionRepository12___find_by_idNtB5_12ExpectationsNtNtCs8CEGv8KHL4Y_4core7default7Default7default
FNDA:2,_RNvXs5_NtNtNtNtNtCshYfsMyf1ONS_19transaction_service9use_cases19process_transaction5tests42___mock_MockWalletGatewayImpl_WalletGateway18___process_movementNtB5_6CommonNtNtNtCs8CEGv8KHL4Y_4core3ops4drop4Drop4drop
FNDA:0,_RNvXs5_NtNtNtNtNtCshYfsMyf1ONS_19transaction_service9use_cases19process_transaction5tests58___mock_MockTransactionRepositoryImpl_TransactionRepository12___find_by_idNtB5_6CommonNtNtNtCs8CEGv8KHL4Y_4core3ops4drop4Drop4drop
FNDA:0,_RNvXs5_NtNtNtNtNtCshYfsMyf1ONS_19transaction_service9use_cases19process_transaction5tests58___mock_MockTransactionRepositoryImpl_TransactionRepository19___find_by_wallet_idNtB5_6CommonNtNtNtCs8CEGv8KHL4Y_4core3ops4drop4Drop4drop
FNDA:3,_RNvXs5_NtNtNtNtNtCshYfsMyf1ONS_19transaction_service9use_cases19process_transaction5tests58___mock_MockTransactionRepositoryImpl_TransactionRepository24___find_by_correlation_idNtB5_6CommonNtNtNtCs8CEGv8KHL4Y_4core3ops4drop4Drop4drop
FNDA:0,_RNvXs5_NtNtNtNtNtCshYfsMyf1ONS_19transaction_service9use_cases19process_transaction5tests58___mock_MockTransactionRepositoryImpl_TransactionRepository25___find_pending_older_thanNtB5_6CommonNtNtNtCs8CEGv8KHL4Y_4core3ops4drop4Drop4drop
FNDA:2,_RNvXs5_NtNtNtNtNtCshYfsMyf1ONS_19transaction_service9use_cases19process_transaction5tests58___mock_MockTransactionRepositoryImpl_TransactionRepository6___saveNtB5_6CommonNtNtNtCs8CEGv8KHL4Y_4core3ops4drop4Drop4drop
FNDA:2,_RNvXs5_NtNtNtNtNtCshYfsMyf1ONS_19transaction_service9use_cases19process_transaction5tests58___mock_MockTransactionRepositoryImpl_TransactionRepository8___updateNtB5_6CommonNtNtNtCs8CEGv8KHL4Y_4core3ops4drop4Drop4drop
FNDA:2,_RINvMs4_NtNtNtNtNtCshYfsMyf1ONS_19transaction_service9use_cases19process_transaction5tests42___mock_MockWalletGatewayImpl_WalletGateway18___process_movementNtB6_6Common15verify_sequenceNCNvMs6_B6_NtB6_11Expectation4call0EBg_
FNDA:2,_RINvMs4_NtNtNtNtNtCshYfsMyf1ONS_19transaction_service9use_cases19process_transaction5tests42___mock_MockWalletGatewayImpl_WalletGateway18___process_movementNtB6_6Common4callNCNvMs6_B6_NtB6_11Expectation4call0EBg_
FNDA:1,_RINvMs4_NtNtNtNtNtCshYfsMyf1ONS_19transaction_service9use_cases19process_transaction5tests42___mock_MockWalletGatewayImpl_WalletGateway18___process_movementNtB6_6Common5timesjEBg_
FNDA:1,_RINvMs6_NtNtNtNtNtCshYfsMyf1ONS_19transaction_service9use_cases19process_transaction5tests42___mock_MockWalletGatewayImpl_WalletGateway18___process_movementNtB6_11Expectation5timesjEBg_
FNDA:1,_RINvMs6_NtNtNtNtNtCshYfsMyf1ONS_19transaction_service9use_cases19process_transaction5tests42___mock_MockWalletGatewayImpl_WalletGateway18___process_movementNtB6_11Expectation9returningNCNCNvBa_s_32test_process_transaction_success0s0_0EBg_
FNDA:1,_RINvMs6_NtNtNtNtNtCshYfsMyf1ONS_19transaction_service9use_cases19process_transaction5tests42___mock_MockWalletGatewayImpl_WalletGateway18___process_movementNtB6_11Expectation9returningNCNCNvBa_s_40test_process_transaction_gateway_failure0s0_0EBg_
FNDA:0,_RNCINvMs4_NtNtNtNtNtCshYfsMyf1ONS_19transaction_service9use_cases19process_transaction5tests42___mock_MockWalletGatewayImpl_WalletGateway18___process_movementNtB8_6Common4callNCNvMs6_B8_NtB8_11Expectation4call0E0Bi_
FNDA:0,_RNCNvMs0_NtNtNtNtNtCshYfsMyf1ONS_19transaction_service9use_cases19process_transaction5tests42___mock_MockWalletGatewayImpl_WalletGateway18___process_movementNtB7_7Matcher7matches0Bh_
FNDA:0,_RNCNvMs6_NtNtNtNtNtCshYfsMyf1ONS_19transaction_service9use_cases19process_transaction5tests42___mock_MockWalletGatewayImpl_WalletGateway18___process_movementNtB7_11Expectation4call0Bh_
FNDA:0,_RNCNvMs6_NtNtNtNtNtCshYfsMyf1ONS_19transaction_service9use_cases19process_transaction5tests42___mock_MockWalletGatewayImpl_WalletGateway18___process_movementNtB7_11Expectation4calls_0Bh_
FNDA:2,_RNCNvMsa_NtNtNtNtNtCshYfsMyf1ONS_19transaction_service9use_cases19process_transaction5tests42___mock_MockWalletGatewayImpl_WalletGateway18___process_movementNtB7_12Expectations4call0Bh_
FNDA:0,_RNCNvMsa_NtNtNtNtNtCshYfsMyf1ONS_19transaction_service9use_cases19process_transaction5tests42___mock_MockWalletGatewayImpl_WalletGateway18___process_movementNtB7_12Expectations4calls_0Bh_
FNDA:2,_RNvMNtNtNtNtNtCshYfsMyf1ONS_19transaction_service9use_cases19process_transaction5tests42___mock_MockWalletGatewayImpl_WalletGateway18___process_movementNtB2_5Rfunc8call_mut
FNDA:2,_RNvMs0_NtNtNtNtNtCshYfsMyf1ONS_19transaction_service9use_cases19process_transaction5tests42___mock_MockWalletGatewayImpl_WalletGateway18___process_movementNtB5_7Matcher7matches
FNDA:0,_RNvMs4_NtNtNtNtNtCshYfsMyf1ONS_19transaction_service9use_cases19process_transaction5tests42___mock_MockWalletGatewayImpl_WalletGateway18___process_movementNtB5_6Common15called_sequence
FNDA:2,_RNvMs4_NtNtNtNtNtCshYfsMyf1ONS_19transaction_service9use_cases19process_transaction5tests42___mock_MockWalletGatewayImpl_WalletGateway18___process_movementNtB5_6Common16satisfy_sequence
FNDA:2,_RNvMs4_NtNtNtNtNtCshYfsMyf1ONS_19transaction_service9use_cases19process_transaction5tests42___mock_MockWalletGatewayImpl_WalletGateway18___process_movementNtB5_6Common19is_history_sequence
FNDA:2,_RNvMs4_NtNtNtNtNtCshYfsMyf1ONS_19transaction_service9use_cases19process_transaction5tests42___mock_MockWalletGatewayImpl_WalletGateway18___process_movementNtB5_6Common7is_done
FNDA:2,_RNvMs4_NtNtNtNtNtCshYfsMyf1ONS_19transaction_service9use_cases19process_transaction5tests42___mock_MockWalletGatewayImpl_WalletGateway18___process_movementNtB5_6Common7matches
FNDA:2,_RNvMs6_NtNtNtNtNtCshYfsMyf1ONS_19transaction_service9use_cases19process_transaction5tests42___mock_MockWalletGatewayImpl_WalletGateway18___process_movementNtB5_11Expectation4call
FNDA:2,_RNvMs6_NtNtNtNtNtCshYfsMyf1ONS_19transaction_service9use_cases19process_transaction5tests42___mock_MockWalletGatewayImpl_WalletGateway18___process_movementNtB5_11Expectation7is_done
FNDA:2,_RNvMs6_NtNtNtNtNtCshYfsMyf1ONS_19transaction_service9use_cases19process_transaction5tests42___mock_MockWalletGatewayImpl_WalletGateway18___process_movementNtB5_11Expectation7matches
FNDA:3,_RNvMs8_NtNtNtNtNtCshYfsMyf1ONS_19transaction_service9use_cases19process_transaction5tests42___mock_MockWalletGatewayImpl_WalletGateway18___process_movementNtB5_12Expectations3new
FNDA:2,_RNvMs8_NtNtNtNtNtCshYfsMyf1ONS_19transaction_service9use_cases19process_transaction5tests42___mock_MockWalletGatewayImpl_WalletGateway18___process_movementNtB5_12Expectations6expect
FNDA:2,_RNvMsa_NtNtNtNtNtCshYfsMyf1ONS_19transaction_service9use_cases19process_transaction5tests42___mock_MockWalletGatewayImpl_WalletGateway18___process_movementNtB5_12Expectations4call
FNDA:2,_RNvXs1_NtNtNtNtNtCshYfsMyf1ONS_19transaction_service9use_cases19process_transaction5tests42___mock_MockWalletGatewayImpl_WalletGateway18___process_movementNtB5_7MatcherNtNtCs8CEGv8KHL4Y_4core7default7Default7default
FNDA:2,_RNvXs2_NtNtNtNtNtCshYfsMyf1ONS_19transaction_service9use_cases19process_transaction5tests42___mock_MockWalletGatewayImpl_WalletGateway18___process_movementNtB5_7MatcherNtNtCs8CEGv8KHL4Y_4core3fmt7Display3fmt
FNDA:2,_RNvXs3_NtNtNtNtNtCshYfsMyf1ONS_19transaction_service9use_cases19process_transaction5tests42___mock_MockWalletGatewayImpl_WalletGateway18___process_movementNtB5_6CommonNtNtCs8CEGv8KHL4Y_4core7default7Default7default
FNDA:2,_RNvXs7_NtNtNtNtNtCshYfsMyf1ONS_19transaction_service9use_cases19process_transaction5tests42___mock_MockWalletGatewayImpl_WalletGateway18___process_movementNtB5_11ExpectationNtNtCs8CEGv8KHL4Y_4core7default7Default7default
FNDA:3,_RNvXs9_NtNtNtNtNtCshYfsMyf1ONS_19transaction_service9use_cases19process_transaction5tests42___mock_MockWalletGatewayImpl_WalletGateway18___process_movementNtB5_12ExpectationsNtNtCs8CEGv8KHL4Y_4core7default7Default7default
FNDA:2,_RNvXs_NtNtNtNtNtCshYfsMyf1ONS_19transaction_service9use_cases19process_transaction5tests42___mock_MockWalletGatewayImpl_WalletGateway18___process_movementNtB4_5RfuncNtNtCs8CEGv8KHL4Y_4core7default7Default7default
FNDA:0,_RNCNCNvMNtNtCshYfsMyf1ONS_19transaction_service9use_cases19process_transactionNtB6_25ProcessTransactionUseCase7execute00Ba_
FNDA:0,_RNCNCNvMNtNtCshYfsMyf1ONS_19transaction_service9use_cases19process_transactionNtB6_25ProcessTransactionUseCase7execute0s_0Ba_
FNDA:3,_RNCNvMNtNtCshYfsMyf1ONS_19transaction_service9use_cases19process_transactionNtB4_25ProcessTransactionUseCase7execute0B8_
FNDA:2,_RNvMNtNtNtNtNtCshYfsMyf1ONS_19transaction_service9use_cases19process_transaction5tests58___mock_MockTransactionRepositoryImpl_TransactionRepository6___saveNtB2_5Rfunc8call_mut
FNDA:2,_RNvMs0_NtNtNtNtNtCshYfsMyf1ONS_19transaction_service9use_cases19process_transaction5tests58___mock_MockTransactionRepositoryImpl_TransactionRepository6___saveNtB5_7Matcher7matches
FNDA:0,_RNvMs4_NtNtNtNtNtCshYfsMyf1ONS_19transaction_service9use_cases19process_transaction5tests58___mock_MockTransactionRepositoryImpl_TransactionRepository6___saveNtB5_6Common15called_sequence
FNDA:2,_RNvMs4_NtNtNtNtNtCshYfsMyf1ONS_19transaction_service9use_cases19process_transaction5tests58___mock_MockTransactionRepositoryImpl_TransactionRepository6___saveNtB5_6Common16satisfy_sequence
FNDA:2,_RNvMs4_NtNtNtNtNtCshYfsMyf1ONS_19transaction_service9use_cases19process_transaction5tests58___mock_MockTransactionRepositoryImpl_TransactionRepository6___saveNtB5_6Common19is_history_sequence
FNDA:2,_RNvMs4_NtNtNtNtNtCshYfsMyf1ONS_19transaction_service9use_cases19process_transaction5tests58___mock_MockTransactionRepositoryImpl_TransactionRepository6___saveNtB5_6Common7is_done
FNDA:2,_RNvMs4_NtNtNtNtNtCshYfsMyf1ONS_19transaction_service9use_cases19process_transaction5tests58___mock_MockTransactionRepositoryImpl_TransactionRepository6___saveNtB5_6Common7matches
FNDA:2,_RNvMs6_NtNtNtNtNtCshYfsMyf1ONS_19transaction_service9use_cases19process_transaction5tests58___mock_MockTransactionRepositoryImpl_TransactionRepository6___saveNtB5_11Expectation4call
FNDA:2,_RNvMs6_NtNtNtNtNtCshYfsMyf1ONS_19transaction_service9use_cases19process_transaction5tests58___mock_MockTransactionRepositoryImpl_TransactionRepository6___saveNtB5_11Expectation7is_done
FNDA:2,_RNvMs6_NtNtNtNtNtCshYfsMyf1ONS_19transaction_service9use_cases19process_transaction5tests58___mock_MockTransactionRepositoryImpl_TransactionRepository6___saveNtB5_11Expectation7matches
FNDA:3,_RNvMs8_NtNtNtNtNtCshYfsMyf1ONS_19transaction_service9use_cases19process_transaction5tests58___mock_MockTransactionRepositoryImpl_TransactionRepository6___saveNtB5_12Expectations3new
FNDA:2,_RNvMs8_NtNtNtNtNtCshYfsMyf1ONS_19transaction_service9use_cases19process_transaction5tests58___mock_MockTransactionRepositoryImpl_TransactionRepository6___saveNtB5_12Expectations6expect
FNDA:2,_RNvMsa_NtNtNtNtNtCshYfsMyf1ONS_19transaction_service9use_cases19process_transaction5tests58___mock_MockTransactionRepositoryImpl_TransactionRepository6___saveNtB5_12Expectations4call
FNDA:2,_RNvXs1_NtNtNtNtNtCshYfsMyf1ONS_19transaction_service9use_cases19process_transaction5tests58___mock_MockTransactionRepositoryImpl_TransactionRepository6___saveNtB5_7MatcherNtNtCs8CEGv8KHL4Y_4core7default7Default7default
FNDA:2,_RNvXs2_NtNtNtNtNtCshYfsMyf1ONS_19transaction_service9use_cases19process_transaction5tests58___mock_MockTransactionRepositoryImpl_TransactionRepository6___saveNtB5_7MatcherNtNtCs8CEGv8KHL4Y_4core3fmt7Display3fmt
FNDA:2,_RNvXs3_NtNtNtNtNtCshYfsMyf1ONS_19transaction_service9use_cases19process_transaction5tests58___mock_MockTransactionRepositoryImpl_TransactionRepository6___saveNtB5_6CommonNtNtCs8CEGv8KHL4Y_4core7default7Default7default
FNDA:2,_RNvXs7_NtNtNtNtNtCshYfsMyf1ONS_19transaction_service9use_cases19process_transaction5tests58___mock_MockTransactionRepositoryImpl_TransactionRepository6___saveNtB5_11ExpectationNtNtCs8CEGv8KHL4Y_4core7default7Default7default
FNDA:3,_RNvXs9_NtNtNtNtNtCshYfsMyf1ONS_19transaction_service9use_cases19process_transaction5tests58___mock_MockTransactionRepositoryImpl_TransactionRepository6___saveNtB5_12ExpectationsNtNtCs8CEGv8KHL4Y_4core7default7Default7default
FNDA:2,_RNvXs_NtNtNtNtNtCshYfsMyf1ONS_19transaction_service9use_cases19process_transaction5tests58___mock_MockTransactionRepositoryImpl_TransactionRepository6___saveNtB4_5RfuncNtNtCs8CEGv8KHL4Y_4core7default7Default7default
FNDA:2,_RINvMs4_NtNtNtNtNtCshYfsMyf1ONS_19transaction_service9use_cases19process_transaction5tests58___mock_MockTransactionRepositoryImpl_TransactionRepository6___saveNtB6_6Common15verify_sequenceNCNvMs6_B6_NtB6_11Expectation4call0EBg_
FNDA:2,_RINvMs4_NtNtNtNtNtCshYfsMyf1ONS_19transaction_service9use_cases19process_transaction5tests58___mock_MockTransactionRepositoryImpl_TransactionRepository6___saveNtB6_6Common4callNCNvMs6_B6_NtB6_11Expectation4call0EBg_
FNDA:1,_RINvMs4_NtNtNtNtNtCshYfsMyf1ONS_19transaction_service9use_cases19process_transaction5tests58___mock_MockTransactionRepositoryImpl_TransactionRepository6___saveNtB6_6Common5timesjEBg_
FNDA:1,_RINvMs6_NtNtNtNtNtCshYfsMyf1ONS_19transaction_service9use_cases19process_transaction5tests58___mock_MockTransactionRepositoryImpl_TransactionRepository6___saveNtB6_11Expectation5timesjEBg_
FNDA:1,_RINvMs6_NtNtNtNtNtCshYfsMyf1ONS_19transaction_service9use_cases19process_transaction5tests58___mock_MockTransactionRepositoryImpl_TransactionRepository6___saveNtB6_11Expectation9returningNCNCNvBa_s_32test_process_transaction_success0s_0EBg_
FNDA:1,_RINvMs6_NtNtNtNtNtCshYfsMyf1ONS_19transaction_service9use_cases19process_transaction5tests58___mock_MockTransactionRepositoryImpl_TransactionRepository6___saveNtB6_11Expectation9returningNCNCNvBa_s_40test_process_transaction_gateway_failure0s_0EBg_
FNDA:0,_RNCINvMs4_NtNtNtNtNtCshYfsMyf1ONS_19transaction_service9use_cases19process_transaction5tests58___mock_MockTransactionRepositoryImpl_TransactionRepository6___saveNtB8_6Common4callNCNvMs6_B8_NtB8_11Expectation4call0E0Bi_
FNDA:0,_RNCNvMs0_NtNtNtNtNtCshYfsMyf1ONS_19transaction_service9use_cases19process_transaction5tests58___mock_MockTransactionRepositoryImpl_TransactionRepository6___saveNtB7_7Matcher7matches0Bh_
FNDA:0,_RNCNvMs6_NtNtNtNtNtCshYfsMyf1ONS_19transaction_service9use_cases19process_transaction5tests58___mock_MockTransactionRepositoryImpl_TransactionRepository6___saveNtB7_11Expectation4call0Bh_
FNDA:0,_RNCNvMs6_NtNtNtNtNtCshYfsMyf1ONS_19transaction_service9use_cases19process_transaction5tests58___mock_MockTransactionRepositoryImpl_TransactionRepository6___saveNtB7_11Expectation4calls_0Bh_
FNDA:2,_RNCNvMsa_NtNtNtNtNtCshYfsMyf1ONS_19transaction_service9use_cases19process_transaction5tests58___mock_MockTransactionRepositoryImpl_TransactionRepository6___saveNtB7_12Expectations4call0Bh_
FNDA:0,_RNCNvMsa_NtNtNtNtNtCshYfsMyf1ONS_19transaction_service9use_cases19process_transaction5tests58___mock_MockTransactionRepositoryImpl_TransactionRepository6___saveNtB7_12Expectations4calls_0Bh_
FNF:24
FNH:20
DA:17,3
DA:18,3
DA:19,3
DA:20,3
DA:21,3
DA:22,3
DA:23,3
DA:24,3
DA:25,3
DA:27,3
DA:28,3
DA:29,3
DA:30,3
DA:31,3
DA:32,3
DA:33,3
DA:38,3
DA:39,3
DA:40,3
DA:41,3
DA:43,1
DA:44,2
DA:49,2
DA:56,2
DA:57,2
DA:58,2
DA:59,2
DA:60,2
DA:65,2
DA:66,2
DA:67,2
DA:68,2
DA:71,2
DA:75,1
DA:76,1
DA:77,1
DA:78,1
DA:79,1
DA:80,1
DA:81,1
DA:82,1
DA:83,0
DA:84,0
DA:89,1
DA:90,1
DA:91,1
DA:92,1
DA:97,1
DA:100,1
DA:101,0
DA:102,1
DA:103,1
DA:104,1
DA:105,0
DA:109,3
DA:127,0
DA:139,228
DA:141,0
DA:148,63
DA:151,1
DA:153,1
DA:154,1
DA:156,1
DA:157,1
DA:158,1
DA:159,1
DA:160,1
DA:161,1
DA:162,1
DA:163,1
DA:164,1
DA:165,1
DA:166,1
DA:167,1
DA:169,1
DA:170,1
DA:171,1
DA:172,1
DA:173,1
DA:175,1
DA:178,1
DA:179,1
DA:180,1
DA:181,1
DA:182,1
DA:183,1
DA:184,1
DA:185,1
DA:188,1
DA:189,1
DA:190,1
DA:191,1
DA:192,1
DA:195,1
DA:197,1
DA:198,1
DA:200,1
DA:201,1
DA:202,1
DA:203,1
DA:206,1
DA:207,1
DA:208,1
DA:209,1
DA:210,1
DA:213,1
DA:216,1
DA:217,1
DA:218,1
DA:219,1
DA:222,1
DA:223,1
DA:224,1
DA:225,1
DA:226,1
DA:227,1
DA:228,1
DA:230,1
DA:233,1
DA:234,1
DA:235,1
DA:238,1
DA:240,1
DA:243,1
DA:245,1
DA:246,1
DA:248,1
DA:249,1
DA:250,1
DA:251,1
DA:253,1
DA:254,1
DA:255,1
DA:256,1
DA:259,1
DA:260,1
DA:261,1
DA:264,1
DA:265,1
DA:266,1
DA:267,1
DA:268,1
DA:269,1
DA:270,1
DA:272,1
DA:275,1
DA:276,1
DA:277,1
DA:280,1
DA:281,1
DA:282,1
DA:283,1
DA:284,1
DA:285,1
BRF:0
BRH:0
LF:176
LH:166
end_of_record
SF:C:\Users\achur\OneDrive\Documents\Programacion\Rust\wallet_project\wallet_service\src\api\error.rs
FN:30,_RNvXs0_NtNtCs3vF0X2Sy9Kl_14wallet_service3api5errorNtB5_8ApiErrorNtNtNtCs1rzvS2e3Skr_9axum_core8response13into_response12IntoResponse13into_response
FN:18,_RNvXNtNtCs3vF0X2Sy9Kl_14wallet_service3api5errorNtB2_8ApiErrorINtNtCs8CEGv8KHL4Y_4core7convert4FromNtNtNtB6_6domain5error9UserErrorE4from
FN:24,_RNvXs_NtNtCs3vF0X2Sy9Kl_14wallet_service3api5errorNtB4_8ApiErrorINtNtCs8CEGv8KHL4Y_4core7convert4FromNtNtNtB8_6domain5error11WalletErrorE4from
FNDA:0,_RNvXs0_NtNtCs3vF0X2Sy9Kl_14wallet_service3api5errorNtB5_8ApiErrorNtNtNtCs1rzvS2e3Skr_9axum_core8response13into_response12IntoResponse13into_response
FNDA:0,_RNvXNtNtCs3vF0X2Sy9Kl_14wallet_service3api5errorNtB2_8ApiErrorINtNtCs8CEGv8KHL4Y_4core7convert4FromNtNtNtB6_6domain5error9UserErrorE4from
FNDA:0,_RNvXs_NtNtCs3vF0X2Sy9Kl_14wallet_service3api5errorNtB4_8ApiErrorINtNtCs8CEGv8KHL4Y_4core7convert4FromNtNtNtB8_6domain5error11WalletErrorE4from
FNF:3
FNH:0
DA:18,0
DA:19,0
DA:20,0
DA:24,0
DA:25,0
DA:26,0
DA:30,0
DA:31,0
DA:32,0
DA:33,0
DA:34,0
DA:35,0
DA:36,0
DA:37,0
DA:38,0
DA:39,0
DA:40,0
DA:42,0
DA:43,0
DA:44,0
DA:45,0
DA:46,0
DA:47,0
DA:48,0
DA:49,0
DA:50,0
DA:54,0
DA:55,0
DA:56,0
DA:57,0
DA:59,0
DA:60,0
BRF:0
BRH:0
LF:32
LH:0
end_of_record
SF:C:\Users\achur\OneDrive\Documents\Programacion\Rust\wallet_project\wallet_service\src\api\grpc_service.rs
FN:41,_RNCNCNCNvXs_NtNtCs3vF0X2Sy9Kl_14wallet_service3api12grpc_serviceNtBa_17WalletGrpcServiceNtNtNtNtBc_5proto6wallet21wallet_service_server13WalletService20validate_and_reserve000Be_
FN:44,_RNCNCNCNvXs_NtNtCs3vF0X2Sy9Kl_14wallet_service3api12grpc_serviceNtBa_17WalletGrpcServiceNtNtNtNtBc_5proto6wallet21wallet_service_server13WalletService20validate_and_reserve00s_0Be_
FN:20,_RNvMNtNtCs3vF0X2Sy9Kl_14wallet_service3api12grpc_serviceNtB2_17WalletGrpcService3new
FNDA:0,_RNCNCNCNvXs_NtNtCs3vF0X2Sy9Kl_14wallet_service3api12grpc_serviceNtBa_17WalletGrpcServiceNtNtNtNtBc_5proto6wallet21wallet_service_server13WalletService20validate_and_reserve000Be_
FNDA:0,_RNCNCNCNvXs_NtNtCs3vF0X2Sy9Kl_14wallet_service3api12grpc_serviceNtBa_17WalletGrpcServiceNtNtNtNtBc_5proto6wallet21wallet_service_server13WalletService20validate_and_reserve00s_0Be_
FNDA:0,_RNvMNtNtCs3vF0X2Sy9Kl_14wallet_service3api12grpc_serviceNtB2_17WalletGrpcService3new
FNF:3
FNH:0
DA:20,0
DA:21,0
DA:22,0
DA:23,0
DA:24,0
DA:41,0
DA:44,0
BRF:0
BRH:0
LF:7
LH:0
end_of_record
SF:C:\Users\achur\OneDrive\Documents\Programacion\Rust\wallet_project\wallet_service\src\api\http_routes.rs
FN:40,_RNvNtNtCs3vF0X2Sy9Kl_14wallet_service3api11http_routes11create_user
FN:66,_RNvNtNtCs3vF0X2Sy9Kl_14wallet_service3api11http_routes13create_wallet
FN:86,_RNvNtNtCs3vF0X2Sy9Kl_14wallet_service3api11http_routes17list_user_wallets
FN:102,_RNvNtNtCs3vF0X2Sy9Kl_14wallet_service3api11http_routes18get_wallet_details
FN:24,_RNvNtNtCs3vF0X2Sy9Kl_14wallet_service3api11http_routes6routes
FN:43,_RNCNvNtNtCs3vF0X2Sy9Kl_14wallet_service3api11http_routes11create_user0B7_
FN:69,_RNCNvNtNtCs3vF0X2Sy9Kl_14wallet_service3api11http_routes13create_wallet0B7_
FN:89,_RNCNvNtNtCs3vF0X2Sy9Kl_14wallet_service3api11http_routes17list_user_wallets0B7_
FN:105,_RNCNvNtNtCs3vF0X2Sy9Kl_14wallet_service3api11http_routes18get_wallet_details0B7_
FNDA:0,_RNvNtNtCs3vF0X2Sy9Kl_14wallet_service3api11http_routes11create_user
FNDA:0,_RNvNtNtCs3vF0X2Sy9Kl_14wallet_service3api11http_routes13create_wallet
FNDA:0,_RNvNtNtCs3vF0X2Sy9Kl_14wallet_service3api11http_routes17list_user_wallets
FNDA:0,_RNvNtNtCs3vF0X2Sy9Kl_14wallet_service3api11http_routes18get_wallet_details
FNDA:0,_RNvNtNtCs3vF0X2Sy9Kl_14wallet_service3api11http_routes6routes
FNDA:0,_RNCNvNtNtCs3vF0X2Sy9Kl_14wallet_service3api11http_routes11create_user0B7_
FNDA:0,_RNCNvNtNtCs3vF0X2Sy9Kl_14wallet_service3api11http_routes13create_wallet0B7_
FNDA:0,_RNCNvNtNtCs3vF0X2Sy9Kl_14wallet_service3api11http_routes17list_user_wallets0B7_
FNDA:0,_RNCNvNtNtCs3vF0X2Sy9Kl_14wallet_service3api11http_routes18get_wallet_details0B7_
FNF:9
FNH:0
DA:24,0
DA:25,0
DA:26,0
DA:27,0
DA:28,0
DA:29,0
DA:30,0
DA:40,0
DA:41,0
DA:42,0
DA:43,0
DA:44,0
DA:45,0
DA:46,0
DA:47,0
DA:49,0
DA:50,0
DA:51,0
DA:52,0
DA:53,0
DA:54,0
DA:66,0
DA:67,0
DA:68,0
DA:69,0
DA:70,0
DA:71,0
DA:72,0
DA:73,0
DA:75,0
DA:76,0
DA:77,0
DA:78,0
DA:79,0
DA:80,0
DA:81,0
DA:82,0
DA:86,0
DA:87,0
DA:88,0
DA:89,0
DA:90,0
DA:91,0
DA:92,0
DA:93,0
DA:95,0
DA:96,0
DA:97,0
DA:98,0
DA:102,0
DA:103,0
DA:104,0
DA:105,0
DA:106,0
DA:107,0
DA:108,0
DA:109,0
DA:111,0
DA:112,0
DA:113,0
DA:114,0
BRF:0
BRH:0
LF:65
LH:0
end_of_record
SF:C:\Users\achur\OneDrive\Documents\Programacion\Rust\wallet_project\wallet_service\src\api\response.rs
FN:10,_RNvMNtNtCs3vF0X2Sy9Kl_14wallet_service3api8responseINtB2_11ApiResponseNtNtCsi2yG4E9i6WH_10serde_json5value5ValueE7successB6_
FNDA:0,_RNvMNtNtCs3vF0X2Sy9Kl_14wallet_service3api8responseINtB2_11ApiResponseNtNtCsi2yG4E9i6WH_10serde_json5value5ValueE7successB6_
FNF:1
FNH:0
DA:10,0
DA:11,0
DA:12,0
DA:13,0
DA:14,0
DA:15,0
BRF:0
BRH:0
LF:6
LH:0
end_of_record
SF:C:\Users\achur\OneDrive\Documents\Programacion\Rust\wallet_project\wallet_service\src\bin\init_db.rs
FN:12,_RNCNCNvCs59iKjgtgd2F_7init_db4main00B5_
FN:18,_RNCNCNvCs59iKjgtgd2F_7init_db4main0s_0B5_
FN:4,_RNCNvCs59iKjgtgd2F_7init_db4main0B3_
FN:4,_RNvCs59iKjgtgd2F_7init_db4main
FNDA:0,_RNCNCNvCs59iKjgtgd2F_7init_db4main00B5_
FNDA:0,_RNCNCNvCs59iKjgtgd2F_7init_db4main0s_0B5_
FNDA:0,_RNCNvCs59iKjgtgd2F_7init_db4main0B3_
FNDA:0,_RNvCs59iKjgtgd2F_7init_db4main
FNF:4
FNH:0
DA:4,0
DA:5,0
DA:7,0
DA:8,0
DA:9,0
DA:10,0
DA:11,0
DA:12,0
DA:14,0
DA:15,0
DA:16,0
DA:17,0
DA:18,0
DA:20,0
DA:21,0
DA:22,0
BRF:0
BRH:0
LF:20
LH:0
end_of_record
SF:C:\Users\achur\OneDrive\Documents\Programacion\Rust\wallet_project\wallet_service\src\domain\entities.rs
FN:80,_RNCNvMs0_NtNtCs3vF0X2Sy9Kl_14wallet_service6domain8entitiesNtB7_13WalletBuilder5build0Bb_
FN:86,_RNCNvMs0_NtNtCs3vF0X2Sy9Kl_14wallet_service6domain8entitiesNtB7_13WalletBuilder5builds0_0Bb_
FN:83,_RNCNvMs0_NtNtCs3vF0X2Sy9Kl_14wallet_service6domain8entitiesNtB7_13WalletBuilder5builds_0Bb_
FN:18,_RNvMNtNtCs3vF0X2Sy9Kl_14wallet_service6domain8entitiesNtB2_4User3new
FN:77,_RNvMs0_NtNtCs3vF0X2Sy9Kl_14wallet_service6domain8entitiesNtB5_13WalletBuilder5build
FN:66,_RNvMs0_NtNtCs3vF0X2Sy9Kl_14wallet_service6domain8entitiesNtB5_13WalletBuilder5label
FN:61,_RNvMs0_NtNtCs3vF0X2Sy9Kl_14wallet_service6domain8entitiesNtB5_13WalletBuilder7user_id
FN:71,_RNvMs0_NtNtCs3vF0X2Sy9Kl_14wallet_service6domain8entitiesNtB5_13WalletBuilder8currency
FN:47,_RNvMs_NtNtCs3vF0X2Sy9Kl_14wallet_service6domain8entitiesNtB4_6Wallet7builder
FNDA:0,_RNCNvMs0_NtNtCs3vF0X2Sy9Kl_14wallet_service6domain8entitiesNtB7_13WalletBuilder5build0Bb_
FNDA:0,_RNCNvMs0_NtNtCs3vF0X2Sy9Kl_14wallet_service6domain8entitiesNtB7_13WalletBuilder5builds0_0Bb_
FNDA:0,_RNCNvMs0_NtNtCs3vF0X2Sy9Kl_14wallet_service6domain8entitiesNtB7_13WalletBuilder5builds_0Bb_
FNDA:2,_RNvMNtNtCs3vF0X2Sy9Kl_14wallet_service6domain8entitiesNtB2_4User3new
FNDA:5,_RNvMs0_NtNtCs3vF0X2Sy9Kl_14wallet_service6domain8entitiesNtB5_13WalletBuilder5build
FNDA:5,_RNvMs0_NtNtCs3vF0X2Sy9Kl_14wallet_service6domain8entitiesNtB5_13WalletBuilder5label
FNDA:5,_RNvMs0_NtNtCs3vF0X2Sy9Kl_14wallet_service6domain8entitiesNtB5_13WalletBuilder7user_id
FNDA:5,_RNvMs0_NtNtCs3vF0X2Sy9Kl_14wallet_service6domain8entitiesNtB5_13WalletBuilder8currency
FNDA:5,_RNvMs_NtNtCs3vF0X2Sy9Kl_14wallet_service6domain8entitiesNtB4_6Wallet7builder
FNF:9
FNH:6
DA:18,2
DA:19,2
DA:20,1
DA:21,1
DA:22,1
DA:23,1
DA:25,1
DA:26,1
DA:27,1
DA:28,1
DA:29,1
DA:30,1
DA:31,2
DA:47,5
DA:48,5
DA:49,5
DA:61,5
DA:62,5
DA:63,5
DA:64,5
DA:66,5
DA:67,5
DA:68,5
DA:69,5
DA:71,5
DA:72,5
DA:73,5
DA:74,5
DA:77,5
DA:78,5
DA:79,5
DA:80,5
DA:81,5
DA:82,5
DA:83,5
DA:84,5
DA:85,5
DA:86,5
DA:88,5
DA:89,0
DA:90,0
DA:91,0
DA:92,5
DA:94,5
DA:95,5
DA:96,1
DA:97,1
DA:98,1
DA:99,4
DA:101,4
DA:102,4
DA:103,4
DA:104,4
DA:105,4
DA:106,4
DA:107,4
DA:108,4
DA:109,5
BRF:0
BRH:0
LF:61
LH:55
end_of_record
SF:C:\Users\achur\OneDrive\Documents\Programacion\Rust\wallet_project\wallet_service\src\infrastructure\persistence\models.rs
FN:22,_RNvXNtNtNtCs3vF0X2Sy9Kl_14wallet_service14infrastructure11persistence6modelsNtB2_9UserModelINtNtCs8CEGv8KHL4Y_4core7convert4FromNtNtNtB8_6domain8entities4UserE4from
FN:61,_RNvXs0_NtNtNtCs3vF0X2Sy9Kl_14wallet_service14infrastructure11persistence6modelsNtB5_11WalletModelINtNtCs8CEGv8KHL4Y_4core7convert4FromNtNtNtBb_6domain8entities6WalletE4from
FN:80,_RNvXs1_NtNtNtCs3vF0X2Sy9Kl_14wallet_service14infrastructure11persistence6modelsNtNtNtBb_6domain8entities6WalletINtNtCs8CEGv8KHL4Y_4core7convert4FromNtB5_11WalletModelE4from
FN:35,_RNvXs_NtNtNtCs3vF0X2Sy9Kl_14wallet_service14infrastructure11persistence6modelsNtNtNtBa_6domain8entities4UserINtNtCs8CEGv8KHL4Y_4core7convert4FromNtB4_9UserModelE4from
FNDA:0,_RNvXNtNtNtCs3vF0X2Sy9Kl_14wallet_service14infrastructure11persistence6modelsNtB2_9UserModelINtNtCs8CEGv8KHL4Y_4core7convert4FromNtNtNtB8_6domain8entities4UserE4from
FNDA:0,_RNvXs0_NtNtNtCs3vF0X2Sy9Kl_14wallet_service14infrastructure11persistence6modelsNtB5_11WalletModelINtNtCs8CEGv8KHL4Y_4core7convert4FromNtNtNtBb_6domain8entities6WalletE4from
FNDA:0,_RNvXs1_NtNtNtCs3vF0X2Sy9Kl_14wallet_service14infrastructure11persistence6modelsNtNtNtBb_6domain8entities6WalletINtNtCs8CEGv8KHL4Y_4core7convert4FromNtB5_11WalletModelE4from
FNDA:0,_RNvXs_NtNtNtCs3vF0X2Sy9Kl_14wallet_service14infrastructure11persistence6modelsNtNtNtBa_6domain8entities4UserINtNtCs8CEGv8KHL4Y_4core7convert4FromNtB4_9UserModelE4from
FNF:4
FNH:0
DA:22,0
DA:23,0
DA:24,0
DA:25,0
DA:26,0
DA:27,0
DA:28,0
DA:29,0
DA:35,0
DA:36,0
DA:37,0
DA:38,0
DA:39,0
DA:40,0
DA:41,0
DA:42,0
DA:61,0
DA:62,0
DA:63,0
DA:64,0
DA:65,0
DA:66,0
DA:67,0
DA:68,0
DA:69,0
DA:70,0
DA:71,0
DA:72,0
DA:73,0
DA:74,0
DA:80,0
DA:81,0
DA:82,0
DA:83,0
DA:84,0
DA:85,0
DA:86,0
DA:87,0
DA:88,0
DA:89,0
BRF:0
BRH:0
LF:40
LH:0
end_of_record
SF:C:\Users\achur\OneDrive\Documents\Programacion\Rust\wallet_project\wallet_service\src\infrastructure\persistence\user_repository.rs
FN:47,_RNCNCNvXs_NtNtNtCs3vF0X2Sy9Kl_14wallet_service14infrastructure11persistence15user_repositoryNtB8_22PostgresUserRepositoryNtNtNtBe_6domain10repository14UserRepository10find_by_id00Be_
FN:52,_RNCNCNvXs_NtNtNtCs3vF0X2Sy9Kl_14wallet_service14infrastructure11persistence15user_repositoryNtB8_22PostgresUserRepositoryNtNtNtBe_6domain10repository14UserRepository10find_by_id0s_0Be_
FN:116,_RNCNCNvXs_NtNtNtCs3vF0X2Sy9Kl_14wallet_service14infrastructure11persistence15user_repositoryNtB8_22PostgresUserRepositoryNtNtNtBe_6domain10repository14UserRepository18exists_by_username00Be_
FN:84,_RNCNCNvXs_NtNtNtCs3vF0X2Sy9Kl_14wallet_service14infrastructure11persistence15user_repositoryNtB8_22PostgresUserRepositoryNtNtNtBe_6domain10repository14UserRepository6create00Be_
FN:25,_RNvMNtNtNtCs3vF0X2Sy9Kl_14wallet_service14infrastructure11persistence15user_repositoryNtB2_22PostgresUserRepository3new
FN:36,_RNvXs_NtNtNtCs3vF0X2Sy9Kl_14wallet_service14infrastructure11persistence15user_repositoryNtB4_22PostgresUserRepositoryNtNtNtBa_6domain10repository14UserRepository10find_by_id
FN:106,_RNvXs_NtNtNtCs3vF0X2Sy9Kl_14wallet_service14infrastructure11persistence15user_repositoryNtB4_22PostgresUserRepositoryNtNtNtBa_6domain10repository14UserRepository18exists_by_username
FN:59,_RNvXs_NtNtNtCs3vF0X2Sy9Kl_14wallet_service14infrastructure11persistence15user_repositoryNtB4_22PostgresUserRepositoryNtNtNtBa_6domain10repository14UserRepository6create
FNDA:0,_RNCNCNvXs_NtNtNtCs3vF0X2Sy9Kl_14wallet_service14infrastructure11persistence15user_repositoryNtB8_22PostgresUserRepositoryNtNtNtBe_6domain10repository14UserRepository10find_by_id00Be_
FNDA:0,_RNCNCNvXs_NtNtNtCs3vF0X2Sy9Kl_14wallet_service14infrastructure11persistence15user_repositoryNtB8_22PostgresUserRepositoryNtNtNtBe_6domain10repository14UserRepository10find_by_id0s_0Be_
FNDA:0,_RNCNCNvXs_NtNtNtCs3vF0X2Sy9Kl_14wallet_service14infrastructure11persistence15user_repositoryNtB8_22PostgresUserRepositoryNtNtNtBe_6domain10repository14UserRepository18exists_by_username00Be_
FNDA:0,_RNCNCNvXs_NtNtNtCs3vF0X2Sy9Kl_14wallet_service14infrastructure11persistence15user_repositoryNtB8_22PostgresUserRepositoryNtNtNtBe_6domain10repository14UserRepository6create00Be_
FNDA:0,_RNvMNtNtNtCs3vF0X2Sy9Kl_14wallet_service14infrastructure11persistence15user_repositoryNtB2_22PostgresUserRepository3new
FNDA:0,_RNvXs_NtNtNtCs3vF0X2Sy9Kl_14wallet_service14infrastructure11persistence15user_repositoryNtB4_22PostgresUserRepositoryNtNtNtBa_6domain10repository14UserRepository10find_by_id
FNDA:0,_RNvXs_NtNtNtCs3vF0X2Sy9Kl_14wallet_service14infrastructure11persistence15user_repositoryNtB4_22PostgresUserRepositoryNtNtNtBa_6domain10repository14UserRepository18exists_by_username
FNDA:0,_RNvXs_NtNtNtCs3vF0X2Sy9Kl_14wallet_service14infrastructure11persistence15user_repositoryNtB4_22PostgresUserRepositoryNtNtNtBa_6domain10repository14UserRepository6create
FNF:8
FNH:0
DA:25,0
DA:26,0
DA:27,0
DA:36,0
DA:47,0
DA:52,0
DA:53,0
DA:59,0
DA:84,0
DA:87,0
DA:88,0
DA:89,0
DA:90,0
DA:91,0
DA:93,0
DA:95,0
DA:100,0
DA:106,0
DA:116,0
DA:120,0
BRF:0
BRH:0
LF:20
LH:0
end_of_record
SF:C:\Users\achur\OneDrive\Documents\Programacion\Rust\wallet_project\wallet_service\src\infrastructure\persistence\wallet_repository.rs
FN:34,_RNCNCNvXs_NtNtNtCs3vF0X2Sy9Kl_14wallet_service14infrastructure11persistence17wallet_repositoryNtB8_24PostgresWalletRepositoryNtNtNtBe_6domain10repository16WalletRepository10find_by_id00Be_
FN:36,_RNCNCNvXs_NtNtNtCs3vF0X2Sy9Kl_14wallet_service14infrastructure11persistence17wallet_repositoryNtB8_24PostgresWalletRepositoryNtNtNtBe_6domain10repository16WalletRepository10find_by_id0s_0Be_
FN:102,_RNCNCNvXs_NtNtNtCs3vF0X2Sy9Kl_14wallet_service14infrastructure11persistence17wallet_repositoryNtB8_24PostgresWalletRepositoryNtNtNtBe_6domain10repository16WalletRepository14update_balance00Be_
FN:51,_RNCNCNvXs_NtNtNtCs3vF0X2Sy9Kl_14wallet_service14infrastructure11persistence17wallet_repositoryNtB8_24PostgresWalletRepositoryNtNtNtBe_6domain10repository16WalletRepository15find_by_user_id00Be_
FN:54,_RNCNCNvXs_NtNtNtCs3vF0X2Sy9Kl_14wallet_service14infrastructure11persistence17wallet_repositoryNtB8_24PostgresWalletRepositoryNtNtNtBe_6domain10repository16WalletRepository15find_by_user_id0s_0Be_
FN:79,_RNCNCNvXs_NtNtNtCs3vF0X2Sy9Kl_14wallet_service14infrastructure11persistence17wallet_repositoryNtB8_24PostgresWalletRepositoryNtNtNtBe_6domain10repository16WalletRepository6create00Be_
FN:16,_RNvMNtNtNtCs3vF0X2Sy9Kl_14wallet_service14infrastructure11persistence17wallet_repositoryNtB2_24PostgresWalletRepository3new
FN:24,_RNvXs_NtNtNtCs3vF0X2Sy9Kl_14wallet_service14infrastructure11persistence17wallet_repositoryNtB4_24PostgresWalletRepositoryNtNtNtBa_6domain10repository16WalletRepository10find_by_id
FN:87,_RNvXs_NtNtNtCs3vF0X2Sy9Kl_14wallet_service14infrastructure11persistence17wallet_repositoryNtB4_24PostgresWalletRepositoryNtNtNtBa_6domain10repository16WalletRepository14update_balance
FN:40,_RNvXs_NtNtNtCs3vF0X2Sy9Kl_14wallet_service14infrastructure11persistence17wallet_repositoryNtB4_24PostgresWalletRepositoryNtNtNtBa_6domain10repository16WalletRepository15find_by_user_id
FN:58,_RNvXs_NtNtNtCs3vF0X2Sy9Kl_14wallet_service14infrastructure11persistence17wallet_repositoryNtB4_24PostgresWalletRepositoryNtNtNtBa_6domain10repository16WalletRepository6create
FNDA:0,_RNCNCNvXs_NtNtNtCs3vF0X2Sy9Kl_14wallet_service14infrastructure11persistence17wallet_repositoryNtB8_24PostgresWalletRepositoryNtNtNtBe_6domain10repository16WalletRepository10find_by_id00Be_
FNDA:0,_RNCNCNvXs_NtNtNtCs3vF0X2Sy9Kl_14wallet_service14infrastructure11persistence17wallet_repositoryNtB8_24PostgresWalletRepositoryNtNtNtBe_6domain10repository16WalletRepository10find_by_id0s_0Be_
FNDA:0,_RNCNCNvXs_NtNtNtCs3vF0X2Sy9Kl_14wallet_service14infrastructure11persistence17wallet_repositoryNtB8_24PostgresWalletRepositoryNtNtNtBe_6domain10repository16WalletRepository14update_balance00Be_
FNDA:0,_RNCNCNvXs_NtNtNtCs3vF0X2Sy9Kl_14wallet_service14infrastructure11persistence17wallet_repositoryNtB8_24PostgresWalletRepositoryNtNtNtBe_6domain10repository16WalletRepository15find_by_user_id00Be_
FNDA:0,_RNCNCNvXs_NtNtNtCs3vF0X2Sy9Kl_14wallet_service14infrastructure11persistence17wallet_repositoryNtB8_24PostgresWalletRepositoryNtNtNtBe_6domain10repository16WalletRepository15find_by_user_id0s_0Be_
FNDA:0,_RNCNCNvXs_NtNtNtCs3vF0X2Sy9Kl_14wallet_service14infrastructure11persistence17wallet_repositoryNtB8_24PostgresWalletRepositoryNtNtNtBe_6domain10repository16WalletRepository6create00Be_
FNDA:0,_RNvMNtNtNtCs3vF0X2Sy9Kl_14wallet_service14infrastructure11persistence17wallet_repositoryNtB2_24PostgresWalletRepository3new
FNDA:0,_RNvXs_NtNtNtCs3vF0X2Sy9Kl_14wallet_service14infrastructure11persistence17wallet_repositoryNtB4_24PostgresWalletRepositoryNtNtNtBa_6domain10repository16WalletRepository10find_by_id
FNDA:0,_RNvXs_NtNtNtCs3vF0X2Sy9Kl_14wallet_service14infrastructure11persistence17wallet_repositoryNtB4_24PostgresWalletRepositoryNtNtNtBa_6domain10repository16WalletRepository14update_balance
FNDA:0,_RNvXs_NtNtNtCs3vF0X2Sy9Kl_14wallet_service14infrastructure11persistence17wallet_repositoryNtB4_24PostgresWalletRepositoryNtNtNtBa_6domain10repository16WalletRepository15find_by_user_id
FNDA:0,_RNvXs_NtNtNtCs3vF0X2Sy9Kl_14wallet_service14infrastructure11persistence17wallet_repositoryNtB4_24PostgresWalletRepositoryNtNtNtBa_6domain10repository16WalletRepository6create
FNF:11
FNH:0
DA:16,0
DA:17,0
DA:18,0
DA:24,0
DA:34,0
DA:36,0
DA:37,0
DA:40,0
DA:51,0
DA:54,0
DA:55,0
DA:58,0
DA:79,0
DA:82,0
DA:87,0
DA:102,0
DA:104,0
DA:105,0
DA:106,0
DA:107,0
DA:108,0
DA:115,0
BRF:0
BRH:0
LF:22
LH:0
end_of_record
SF:C:\Users\achur\OneDrive\Documents\Programacion\Rust\wallet_project\wallet_service\src\main.rs
FN:57,_RNCNCNvCshvPO1VwxUS0_14wallet_service4main00B5_
FN:66,_RNCNCNvCshvPO1VwxUS0_14wallet_service4main0s0_0B5_
FN:87,_RNCNCNvCshvPO1VwxUS0_14wallet_service4main0s1_0B5_
FN:88,_RNCNCNvCshvPO1VwxUS0_14wallet_service4main0s2_0B5_
FN:58,_RNCNCNvCshvPO1VwxUS0_14wallet_service4main0s_0B5_
FN:24,_RNCNvCshvPO1VwxUS0_14wallet_service4main0B3_
FN:24,_RNvCshvPO1VwxUS0_14wallet_service4main
FNDA:0,_RNCNCNvCshvPO1VwxUS0_14wallet_service4main00B5_
FNDA:0,_RNCNCNvCshvPO1VwxUS0_14wallet_service4main0s0_0B5_
FNDA:0,_RNCNCNvCshvPO1VwxUS0_14wallet_service4main0s1_0B5_
FNDA:0,_RNCNCNvCshvPO1VwxUS0_14wallet_service4main0s2_0B5_
FNDA:0,_RNCNCNvCshvPO1VwxUS0_14wallet_service4main0s_0B5_
FNDA:0,_RNCNvCshvPO1VwxUS0_14wallet_service4main0B3_
FNDA:0,_RNvCshvPO1VwxUS0_14wallet_service4main
FNF:7
FNH:0
DA:24,0
DA:26,0
DA:29,0
DA:30,0
DA:31,0
DA:32,0
DA:34,0
DA:37,0
DA:38,0
DA:39,0
DA:40,0
DA:41,0
DA:43,0
DA:46,0
DA:47,0
DA:50,0
DA:51,0
DA:52,0
DA:53,0
DA:54,0
DA:57,0
DA:58,0
DA:59,0
DA:61,0
DA:63,0
DA:66,0
DA:67,0
DA:68,0
DA:69,0
DA:70,0
DA:72,0
DA:73,0
DA:74,0
DA:77,0
DA:78,0
DA:79,0
DA:80,0
DA:81,0
DA:82,0
DA:85,0
DA:87,0
DA:88,0
DA:89,0
DA:91,0
DA:93,0
DA:94,0
DA:96,0
DA:97,0
BRF:0
BRH:0
LF:55
LH:0
end_of_record
SF:C:\Users\achur\OneDrive\Documents\Programacion\Rust\wallet_project\wallet_service\src\use_cases\create_user.rs
FN:37,_RNCNvMNtNtCs3vF0X2Sy9Kl_14wallet_service9use_cases11create_userNtB4_17CreateUserUseCase7execute0B8_
FN:71,_RNCNCNvNtNtNtCs3vF0X2Sy9Kl_14wallet_service9use_cases11create_user5testss_24test_create_user_success0s_0Bb_
FN:145,_RNCNCNvNtNtNtCs3vF0X2Sy9Kl_14wallet_service9use_cases11create_user5testss_43test_create_user_repository_error_on_exists00Bb_
FN:57,_RNCNvNtNtNtCs3vF0X2Sy9Kl_14wallet_service9use_cases11create_user5testss_24test_create_user_success0B9_
FN:109,_RNCNvNtNtNtCs3vF0X2Sy9Kl_14wallet_service9use_cases11create_user5testss_29test_create_user_invalid_data0B9_
FN:84,_RNCNvNtNtNtCs3vF0X2Sy9Kl_14wallet_service9use_cases11create_user5testss_31test_create_user_username_taken0B9_
FN:134,_RNCNvNtNtNtCs3vF0X2Sy9Kl_14wallet_service9use_cases11create_user5testss_43test_create_user_repository_error_on_exists0B9_
FN:19,_RNvMNtNtCs3vF0X2Sy9Kl_14wallet_service9use_cases11create_userNtB2_17CreateUserUseCase3new
FN:37,_RNvMNtNtCs3vF0X2Sy9Kl_14wallet_service9use_cases11create_userNtB2_17CreateUserUseCase7execute
FN:57,_RNvNtNtNtCs3vF0X2Sy9Kl_14wallet_service9use_cases11create_user5testss_24test_create_user_success
FN:109,_RNvNtNtNtCs3vF0X2Sy9Kl_14wallet_service9use_cases11create_user5testss_29test_create_user_invalid_data
FN:84,_RNvNtNtNtCs3vF0X2Sy9Kl_14wallet_service9use_cases11create_user5testss_31test_create_user_username_taken
FN:134,_RNvNtNtNtCs3vF0X2Sy9Kl_14wallet_service9use_cases11create_user5testss_43test_create_user_repository_error_on_exists
FNDA:4,_RNCNvMNtNtCs3vF0X2Sy9Kl_14wallet_service9use_cases11create_userNtB4_17CreateUserUseCase7execute0B8_
FNDA:1,_RNCNCNvNtNtNtCs3vF0X2Sy9Kl_14wallet_service9use_cases11create_user5testss_24test_create_user_success0s_0Bb_
FNDA:1,_RNCNCNvNtNtNtCs3vF0X2Sy9Kl_14wallet_service9use_cases11create_user5testss_43test_create_user_repository_error_on_exists00Bb_
FNDA:1,_RNCNvNtNtNtCs3vF0X2Sy9Kl_14wallet_service9use_cases11create_user5testss_24test_create_user_success0B9_
FNDA:1,_RNCNvNtNtNtCs3vF0X2Sy9Kl_14wallet_service9use_cases11create_user5testss_29test_create_user_invalid_data0B9_
FNDA:1,_RNCNvNtNtNtCs3vF0X2Sy9Kl_14wallet_service9use_cases11create_user5testss_31test_create_user_username_taken0B9_
FNDA:1,_RNCNvNtNtNtCs3vF0X2Sy9Kl_14wallet_service9use_cases11create_user5testss_43test_create_user_repository_error_on_exists0B9_
FNDA:4,_RNvMNtNtCs3vF0X2Sy9Kl_14wallet_service9use_cases11create_userNtB2_17CreateUserUseCase3new
FNDA:4,_RNvMNtNtCs3vF0X2Sy9Kl_14wallet_service9use_cases11create_userNtB2_17CreateUserUseCase7execute
FNDA:1,_RNvNtNtNtCs3vF0X2Sy9Kl_14wallet_service9use_cases11create_user5testss_24test_create_user_success
FNDA:1,_RNvNtNtNtCs3vF0X2Sy9Kl_14wallet_service9use_cases11create_user5testss_29test_create_user_invalid_data
FNDA:1,_RNvNtNtNtCs3vF0X2Sy9Kl_14wallet_service9use_cases11create_user5testss_31test_create_user_username_taken
FNDA:1,_RNvNtNtNtCs3vF0X2Sy9Kl_14wallet_service9use_cases11create_user5testss_43test_create_user_repository_error_on_exists
FNF:13
FNH:13
DA:19,4
DA:20,4
DA:21,4
DA:37,4
DA:39,4
DA:40,1
DA:41,2
DA:44,2
DA:47,1
DA:48,4
DA:57,1
DA:58,1
DA:60,1
DA:61,1
DA:64,1
DA:65,1
DA:66,1
DA:67,1
DA:68,1
DA:71,1
DA:73,1
DA:75,1
DA:77,1
DA:78,1
DA:79,1
DA:80,1
DA:81,1
DA:84,1
DA:85,1
DA:87,1
DA:88,1
DA:91,1
DA:92,1
DA:93,1
DA:94,1
DA:95,1
DA:97,1
DA:99,1
DA:101,1
DA:102,1
DA:103,1
DA:104,1
DA:105,1
DA:106,1
DA:109,1
DA:110,1
DA:112,1
DA:113,1
DA:116,1
DA:117,1
DA:118,1
DA:119,1
DA:120,1
DA:122,1
DA:124,1
DA:126,1
DA:127,1
DA:128,1
DA:129,1
DA:130,1
DA:131,1
DA:134,1
DA:135,1
DA:137,1
DA:138,1
DA:141,1
DA:142,1
DA:143,1
DA:144,1
DA:145,1
DA:147,1
DA:149,1
DA:151,1
DA:152,1
DA:153,1
DA:154,1
DA:155,1
DA:156,1
BRF:0
BRH:0
LF:95
LH:92
end_of_record
SF:C:\Users\achur\OneDrive\Documents\Programacion\Rust\wallet_project\wallet_service\src\use_cases\create_wallet.rs
FN:62,_RNvNtNtNtCs3vF0X2Sy9Kl_14wallet_service9use_cases13create_wallet5testss_26test_create_wallet_success
FN:98,_RNvNtNtNtCs3vF0X2Sy9Kl_14wallet_service9use_cases13create_wallet5testss_33test_create_wallet_user_not_found
FN:120,_RNvNtNtNtCs3vF0X2Sy9Kl_14wallet_service9use_cases13create_wallet5testss_35test_create_wallet_invalid_currency
FN:16,_RNvMNtNtCs3vF0X2Sy9Kl_14wallet_service9use_cases13create_walletNtB2_19CreateWalletUseCase3new
FN:26,_RNvMNtNtCs3vF0X2Sy9Kl_14wallet_service9use_cases13create_walletNtB2_19CreateWalletUseCase7execute
FN:36,_RNCNCNvMNtNtCs3vF0X2Sy9Kl_14wallet_service9use_cases13create_walletNtB6_19CreateWalletUseCase7execute00Ba_
FN:31,_RNCNvMNtNtCs3vF0X2Sy9Kl_14wallet_service9use_cases13create_walletNtB4_19CreateWalletUseCase7execute0B8_
FN:71,_RNCNCNvNtNtNtCs3vF0X2Sy9Kl_14wallet_service9use_cases13create_wallet5testss_26test_create_wallet_success00Bb_
FN:81,_RNCNCNvNtNtNtCs3vF0X2Sy9Kl_14wallet_service9use_cases13create_wallet5testss_26test_create_wallet_success0s_0Bb_
FN:107,_RNCNCNvNtNtNtCs3vF0X2Sy9Kl_14wallet_service9use_cases13create_wallet5testss_33test_create_wallet_user_not_found00Bb_
FN:128,_RNCNCNvNtNtNtCs3vF0X2Sy9Kl_14wallet_service9use_cases13create_wallet5testss_35test_create_wallet_invalid_currency00Bb_
FN:62,_RNCNvNtNtNtCs3vF0X2Sy9Kl_14wallet_service9use_cases13create_wallet5testss_26test_create_wallet_success0B9_
FN:98,_RNCNvNtNtNtCs3vF0X2Sy9Kl_14wallet_service9use_cases13create_wallet5testss_33test_create_wallet_user_not_found0B9_
FN:120,_RNCNvNtNtNtCs3vF0X2Sy9Kl_14wallet_service9use_cases13create_wallet5testss_35test_create_wallet_invalid_currency0B9_
FNDA:1,_RNvNtNtNtCs3vF0X2Sy9Kl_14wallet_service9use_cases13create_wallet5testss_26test_create_wallet_success
FNDA:1,_RNvNtNtNtCs3vF0X2Sy9Kl_14wallet_service9use_cases13create_wallet5testss_33test_create_wallet_user_not_found
FNDA:1,_RNvNtNtNtCs3vF0X2Sy9Kl_14wallet_service9use_cases13create_wallet5testss_35test_create_wallet_invalid_currency
FNDA:3,_RNvMNtNtCs3vF0X2Sy9Kl_14wallet_service9use_cases13create_walletNtB2_19CreateWalletUseCase3new
FNDA:3,_RNvMNtNtCs3vF0X2Sy9Kl_14wallet_service9use_cases13create_walletNtB2_19CreateWalletUseCase7execute
FNDA:0,_RNCNCNvMNtNtCs3vF0X2Sy9Kl_14wallet_service9use_cases13create_walletNtB6_19CreateWalletUseCase7execute00Ba_
FNDA:3,_RNCNvMNtNtCs3vF0X2Sy9Kl_14wallet_service9use_cases13create_walletNtB4_19CreateWalletUseCase7execute0B8_
FNDA:1,_RNCNCNvNtNtNtCs3vF0X2Sy9Kl_14wallet_service9use_cases13create_wallet5testss_26test_create_wallet_success00Bb_
FNDA:1,_RNCNCNvNtNtNtCs3vF0X2Sy9Kl_14wallet_service9use_cases13create_wallet5testss_26test_create_wallet_success0s_0Bb_
FNDA:1,_RNCNCNvNtNtNtCs3vF0X2Sy9Kl_14wallet_service9use_cases13create_wallet5testss_33test_create_wallet_user_not_found00Bb_
FNDA:1,_RNCNCNvNtNtNtCs3vF0X2Sy9Kl_14wallet_service9use_cases13create_wallet5testss_35test_create_wallet_invalid_currency00Bb_
FNDA:1,_RNCNvNtNtNtCs3vF0X2Sy9Kl_14wallet_service9use_cases13create_wallet5testss_26test_create_wallet_success0B9_
FNDA:1,_RNCNvNtNtNtCs3vF0X2Sy9Kl_14wallet_service9use_cases13create_wallet5testss_33test_create_wallet_user_not_found0B9_
FNDA:1,_RNCNvNtNtNtCs3vF0X2Sy9Kl_14wallet_service9use_cases13create_wallet5testss_35test_create_wallet_invalid_currency0B9_
FNF:14
FNH:13
DA:16,3
DA:17,3
DA:18,3
DA:19,3
DA:20,3
DA:21,3
DA:26,3
DA:27,3
DA:28,3
DA:29,3
DA:30,3
DA:31,3
DA:32,3
DA:33,3
DA:34,3
DA:35,3
DA:36,3
DA:38,3
DA:39,1
DA:40,2
DA:43,2
DA:44,2
DA:45,2
DA:46,2
DA:47,2
DA:49,1
DA:50,3
DA:62,1
DA:63,1
DA:64,1
DA:65,1
DA:68,1
DA:69,1
DA:70,1
DA:71,1
DA:72,1
DA:73,1
DA:74,1
DA:75,1
DA:76,1
DA:77,1
DA:78,1
DA:81,1
DA:83,1
DA:84,1
DA:86,1
DA:87,1
DA:88,1
DA:90,1
DA:91,1
DA:92,1
DA:93,1
DA:94,1
DA:95,1
DA:98,1
DA:99,1
DA:100,1
DA:101,1
DA:104,1
DA:105,1
DA:106,1
DA:107,1
DA:109,1
DA:110,1
DA:112,1
DA:113,1
DA:114,1
DA:116,1
DA:117,1
DA:120,1
DA:121,1
DA:122,1
DA:123,1
DA:125,1
DA:126,1
DA:127,1
DA:128,1
DA:129,1
DA:130,1
DA:131,1
DA:132,1
DA:133,1
DA:134,1
DA:135,1
DA:137,1
DA:138,1
DA:141,1
DA:142,1
DA:143,1
DA:145,1
DA:146,1
BRF:0
BRH:0
LF:103
LH:102
end_of_record
SF:C:\Users\achur\OneDrive\Documents\Programacion\Rust\wallet_project\wallet_service\src\use_cases\get_user_wallets.rs
FN:34,_RNCNvMNtNtCs3vF0X2Sy9Kl_14wallet_service9use_cases16get_user_walletsNtB4_17GetWalletsUseCase7execute0B8_
FN:53,_RNCNCNvNtNtNtCs3vF0X2Sy9Kl_14wallet_service9use_cases16get_user_wallets5testss_30test_get_wallets_success_empty00Bb_
FN:108,_RNCNCNvNtNtNtCs3vF0X2Sy9Kl_14wallet_service9use_cases16get_user_wallets5testss_33test_get_wallets_repository_error00Bb_
FN:72,_RNCNCNvNtNtNtCs3vF0X2Sy9Kl_14wallet_service9use_cases16get_user_wallets5testss_35test_get_wallets_success_with_items00Bb_
FN:45,_RNCNvNtNtNtCs3vF0X2Sy9Kl_14wallet_service9use_cases16get_user_wallets5testss_30test_get_wallets_success_empty0B9_
FN:100,_RNCNvNtNtNtCs3vF0X2Sy9Kl_14wallet_service9use_cases16get_user_wallets5testss_33test_get_wallets_repository_error0B9_
FN:64,_RNCNvNtNtNtCs3vF0X2Sy9Kl_14wallet_service9use_cases16get_user_wallets5testss_35test_get_wallets_success_with_items0B9_
FN:45,_RNvNtNtNtCs3vF0X2Sy9Kl_14wallet_service9use_cases16get_user_wallets5testss_30test_get_wallets_success_empty
FN:100,_RNvNtNtNtCs3vF0X2Sy9Kl_14wallet_service9use_cases16get_user_wallets5testss_33test_get_wallets_repository_error
FN:64,_RNvNtNtNtCs3vF0X2Sy9Kl_14wallet_service9use_cases16get_user_wallets5testss_35test_get_wallets_success_with_items
FN:19,_RNvMNtNtCs3vF0X2Sy9Kl_14wallet_service9use_cases16get_user_walletsNtB2_17GetWalletsUseCase3new
FN:34,_RNvMNtNtCs3vF0X2Sy9Kl_14wallet_service9use_cases16get_user_walletsNtB2_17GetWalletsUseCase7execute
FNDA:3,_RNCNvMNtNtCs3vF0X2Sy9Kl_14wallet_service9use_cases16get_user_walletsNtB4_17GetWalletsUseCase7execute0B8_
FNDA:1,_RNCNCNvNtNtNtCs3vF0X2Sy9Kl_14wallet_service9use_cases16get_user_wallets5testss_30test_get_wallets_success_empty00Bb_
FNDA:1,_RNCNCNvNtNtNtCs3vF0X2Sy9Kl_14wallet_service9use_cases16get_user_wallets5testss_33test_get_wallets_repository_error00Bb_
FNDA:1,_RNCNCNvNtNtNtCs3vF0X2Sy9Kl_14wallet_service9use_cases16get_user_wallets5testss_35test_get_wallets_success_with_items00Bb_
FNDA:1,_RNCNvNtNtNtCs3vF0X2Sy9Kl_14wallet_service9use_cases16get_user_wallets5testss_30test_get_wallets_success_empty0B9_
FNDA:1,_RNCNvNtNtNtCs3vF0X2Sy9Kl_14wallet_service9use_cases16get_user_wallets5testss_33test_get_wallets_repository_error0B9_
FNDA:1,_RNCNvNtNtNtCs3vF0X2Sy9Kl_14wallet_service9use_cases16get_user_wallets5testss_35test_get_wallets_success_with_items0B9_
FNDA:1,_RNvNtNtNtCs3vF0X2Sy9Kl_14wallet_service9use_cases16get_user_wallets5testss_30test_get_wallets_success_empty
FNDA:1,_RNvNtNtNtCs3vF0X2Sy9Kl_14wallet_service9use_cases16get_user_wallets5testss_33test_get_wallets_repository_error
FNDA:1,_RNvNtNtNtCs3vF0X2Sy9Kl_14wallet_service9use_cases16get_user_wallets5testss_35test_get_wallets_success_with_items
FNDA:3,_RNvMNtNtCs3vF0X2Sy9Kl_14wallet_service9use_cases16get_user_walletsNtB2_17GetWalletsUseCase3new
FNDA:3,_RNvMNtNtCs3vF0X2Sy9Kl_14wallet_service9use_cases16get_user_walletsNtB2_17GetWalletsUseCase7execute
FNF:12
FNH:12
DA:19,3
DA:20,3
DA:21,3
DA:34,3
DA:36,3
DA:45,1
DA:46,1
DA:47,1
DA:49,1
DA:50,1
DA:51,1
DA:52,1
DA:53,1
DA:55,1
DA:56,1
DA:58,1
DA:59,1
DA:60,1
DA:61,1
DA:64,1
DA:65,1
DA:66,1
DA:68,1
DA:69,1
DA:70,1
DA:71,1
DA:72,1
DA:73,1
DA:74,1
DA:75,1
DA:76,1
DA:77,1
DA:78,1
DA:79,1
DA:80,1
DA:81,1
DA:82,1
DA:83,1
DA:84,1
DA:85,1
DA:86,1
DA:87,1
DA:89,1
DA:90,1
DA:92,1
DA:93,1
DA:94,1
DA:95,1
DA:96,1
DA:97,1
DA:100,1
DA:101,1
DA:102,1
DA:104,1
DA:105,1
DA:106,1
DA:107,1
DA:108,1
DA:110,1
DA:111,1
DA:113,1
DA:114,1
DA:115,1
DA:116,1
DA:117,1
DA:118,1
BRF:0
BRH:0
LF:78
LH:77
end_of_record
SF:C:\Users\achur\OneDrive\Documents\Programacion\Rust\wallet_project\wallet_service\src\use_cases\get_wallet.rs
FN:49,_RNvNtNtNtCs3vF0X2Sy9Kl_14wallet_service9use_cases10get_wallet5testss_23test_get_wallet_success
FN:79,_RNvNtNtNtCs3vF0X2Sy9Kl_14wallet_service9use_cases10get_wallet5testss_25test_get_wallet_not_found
FN:100,_RNvNtNtNtCs3vF0X2Sy9Kl_14wallet_service9use_cases10get_wallet5testss_32test_get_wallet_repository_error
FN:20,_RNvMNtNtCs3vF0X2Sy9Kl_14wallet_service9use_cases10get_walletNtB2_16GetWalletUseCase3new
FN:35,_RNvMNtNtCs3vF0X2Sy9Kl_14wallet_service9use_cases10get_walletNtB2_16GetWalletUseCase7execute
FN:58,_RNCNCNvNtNtNtCs3vF0X2Sy9Kl_14wallet_service9use_cases10get_wallet5testss_23test_get_wallet_success00Bb_
FN:87,_RNCNCNvNtNtNtCs3vF0X2Sy9Kl_14wallet_service9use_cases10get_wallet5testss_25test_get_wallet_not_found00Bb_
FN:108,_RNCNCNvNtNtNtCs3vF0X2Sy9Kl_14wallet_service9use_cases10get_wallet5testss_32test_get_wallet_repository_error00Bb_
FN:49,_RNCNvNtNtNtCs3vF0X2Sy9Kl_14wallet_service9use_cases10get_wallet5testss_23test_get_wallet_success0B9_
FN:79,_RNCNvNtNtNtCs3vF0X2Sy9Kl_14wallet_service9use_cases10get_wallet5testss_25test_get_wallet_not_found0B9_
FN:100,_RNCNvNtNtNtCs3vF0X2Sy9Kl_14wallet_service9use_cases10get_wallet5testss_32test_get_wallet_repository_error0B9_
FN:35,_RNCNvMNtNtCs3vF0X2Sy9Kl_14wallet_service9use_cases10get_walletNtB4_16GetWalletUseCase7execute0B8_
FNDA:1,_RNvNtNtNtCs3vF0X2Sy9Kl_14wallet_service9use_cases10get_wallet5testss_23test_get_wallet_success
FNDA:1,_RNvNtNtNtCs3vF0X2Sy9Kl_14wallet_service9use_cases10get_wallet5testss_25test_get_wallet_not_found
FNDA:1,_RNvNtNtNtCs3vF0X2Sy9Kl_14wallet_service9use_cases10get_wallet5testss_32test_get_wallet_repository_error
FNDA:3,_RNvMNtNtCs3vF0X2Sy9Kl_14wallet_service9use_cases10get_walletNtB2_16GetWalletUseCase3new
FNDA:3,_RNvMNtNtCs3vF0X2Sy9Kl_14wallet_service9use_cases10get_walletNtB2_16GetWalletUseCase7execute
FNDA:1,_RNCNCNvNtNtNtCs3vF0X2Sy9Kl_14wallet_service9use_cases10get_wallet5testss_23test_get_wallet_success00Bb_
FNDA:1,_RNCNCNvNtNtNtCs3vF0X2Sy9Kl_14wallet_service9use_cases10get_wallet5testss_25test_get_wallet_not_found00Bb_
FNDA:1,_RNCNCNvNtNtNtCs3vF0X2Sy9Kl_14wallet_service9use_cases10get_wallet5testss_32test_get_wallet_repository_error00Bb_
FNDA:1,_RNCNvNtNtNtCs3vF0X2Sy9Kl_14wallet_service9use_cases10get_wallet5testss_23test_get_wallet_success0B9_
FNDA:1,_RNCNvNtNtNtCs3vF0X2Sy9Kl_14wallet_service9use_cases10get_wallet5testss_25test_get_wallet_not_found0B9_
FNDA:1,_RNCNvNtNtNtCs3vF0X2Sy9Kl_14wallet_service9use_cases10get_wallet5testss_32test_get_wallet_repository_error0B9_
FNDA:3,_RNCNvMNtNtCs3vF0X2Sy9Kl_14wallet_service9use_cases10get_walletNtB4_16GetWalletUseCase7execute0B8_
FNF:12
FNH:12
DA:20,3
DA:21,3
DA:22,3
DA:35,3
DA:40,3
DA:49,1
DA:50,1
DA:51,1
DA:52,1
DA:54,1
DA:55,1
DA:56,1
DA:57,1
DA:58,1
DA:59,1
DA:60,1
DA:61,1
DA:62,1
DA:63,1
DA:64,1
DA:65,1
DA:66,1
DA:67,1
DA:69,1
DA:70,1
DA:72,1
DA:73,1
DA:74,1
DA:75,1
DA:76,1
DA:79,1
DA:80,1
DA:81,1
DA:83,1
DA:84,1
DA:85,1
DA:86,1
DA:87,1
DA:89,1
DA:90,1
DA:92,1
DA:93,1
DA:94,1
DA:95,1
DA:96,1
DA:97,1
DA:100,1
DA:101,1
DA:102,1
DA:104,1
DA:105,1
DA:106,1
DA:107,1
DA:108,1
DA:110,1
DA:111,1
DA:113,1
DA:114,1
DA:115,1
DA:116,1
DA:117,1
DA:118,1
BRF:0
BRH:0
LF:76
LH:74
end_of_record
SF:C:\Users\achur\OneDrive\Documents\Programacion\Rust\wallet_project\wallet_service\src\use_cases\process_movement.rs
FN:20,_RNvMNtNtCs3vF0X2Sy9Kl_14wallet_service9use_cases16process_movementNtB2_22ProcessMovementUseCase3new
FN:40,_RNvMNtNtCs3vF0X2Sy9Kl_14wallet_service9use_cases16process_movementNtB2_22ProcessMovementUseCase7execute
FN:44,_RNCNvMNtNtCs3vF0X2Sy9Kl_14wallet_service9use_cases16process_movementNtB4_22ProcessMovementUseCase7execute0B8_
FN:57,_RNvNtNtNtCs3vF0X2Sy9Kl_14wallet_service9use_cases16process_movement5testss_29test_process_movement_success
FN:78,_RNvNtNtNtCs3vF0X2Sy9Kl_14wallet_service9use_cases16process_movement5testss_31test_process_movement_not_found
FN:103,_RNvNtNtNtCs3vF0X2Sy9Kl_14wallet_service9use_cases16process_movement5testss_40test_process_movement_insufficient_funds
FN:69,_RNCNCNvNtNtNtCs3vF0X2Sy9Kl_14wallet_service9use_cases16process_movement5testss_29test_process_movement_success00Bb_
FN:90,_RNCNCNvNtNtNtCs3vF0X2Sy9Kl_14wallet_service9use_cases16process_movement5testss_31test_process_movement_not_found00Bb_
FN:115,_RNCNCNvNtNtNtCs3vF0X2Sy9Kl_14wallet_service9use_cases16process_movement5testss_40test_process_movement_insufficient_funds00Bb_
FN:57,_RNCNvNtNtNtCs3vF0X2Sy9Kl_14wallet_service9use_cases16process_movement5testss_29test_process_movement_success0B9_
FN:78,_RNCNvNtNtNtCs3vF0X2Sy9Kl_14wallet_service9use_cases16process_movement5testss_31test_process_movement_not_found0B9_
FN:103,_RNCNvNtNtNtCs3vF0X2Sy9Kl_14wallet_service9use_cases16process_movement5testss_40test_process_movement_insufficient_funds0B9_
FNDA:3,_RNvMNtNtCs3vF0X2Sy9Kl_14wallet_service9use_cases16process_movementNtB2_22ProcessMovementUseCase3new
FNDA:3,_RNvMNtNtCs3vF0X2Sy9Kl_14wallet_service9use_cases16process_movementNtB2_22ProcessMovementUseCase7execute
FNDA:3,_RNCNvMNtNtCs3vF0X2Sy9Kl_14wallet_service9use_cases16process_movementNtB4_22ProcessMovementUseCase7execute0B8_
FNDA:1,_RNvNtNtNtCs3vF0X2Sy9Kl_14wallet_service9use_cases16process_movement5testss_29test_process_movement_success
FNDA:1,_RNvNtNtNtCs3vF0X2Sy9Kl_14wallet_service9use_cases16process_movement5testss_31test_process_movement_not_found
FNDA:1,_RNvNtNtNtCs3vF0X2Sy9Kl_14wallet_service9use_cases16process_movement5testss_40test_process_movement_insufficient_funds
FNDA:1,_RNCNCNvNtNtNtCs3vF0X2Sy9Kl_14wallet_service9use_cases16process_movement5testss_29test_process_movement_success00Bb_
FNDA:1,_RNCNCNvNtNtNtCs3vF0X2Sy9Kl_14wallet_service9use_cases16process_movement5testss_31test_process_movement_not_found00Bb_
FNDA:1,_RNCNCNvNtNtNtCs3vF0X2Sy9Kl_14wallet_service9use_cases16process_movement5testss_40test_process_movement_insufficient_funds00Bb_
FNDA:1,_RNCNvNtNtNtCs3vF0X2Sy9Kl_14wallet_service9use_cases16process_movement5testss_29test_process_movement_success0B9_
FNDA:1,_RNCNvNtNtNtCs3vF0X2Sy9Kl_14wallet_service9use_cases16process_movement5testss_31test_process_movement_not_found0B9_
FNDA:1,_RNCNvNtNtNtCs3vF0X2Sy9Kl_14wallet_service9use_cases16process_movement5testss_40test_process_movement_insufficient_funds0B9_
FNF:12
FNH:12
DA:20,3
DA:21,3
DA:22,3
DA:40,3
DA:41,3
DA:42,3
DA:43,3
DA:44,3
DA:46,3
DA:57,1
DA:58,1
DA:59,1
DA:60,1
DA:62,1
DA:63,1
DA:64,1
DA:65,1
DA:66,1
DA:67,1
DA:68,1
DA:69,1
DA:71,1
DA:72,1
DA:74,1
DA:75,1
DA:78,1
DA:79,1
DA:80,1
DA:81,1
DA:83,1
DA:84,1
DA:85,1
DA:86,1
DA:87,1
DA:88,1
DA:89,1
DA:90,1
DA:92,1
DA:93,1
DA:95,1
DA:96,1
DA:97,1
DA:98,1
DA:99,1
DA:100,1
DA:103,1
DA:104,1
DA:105,1
DA:106,1
DA:108,1
DA:109,1
DA:110,1
DA:111,1
DA:112,1
DA:113,1
DA:114,1
DA:115,1
DA:117,1
DA:118,1
DA:120,1
DA:121,1
DA:122,1
DA:123,1
DA:124,1
DA:125,1
BRF:0
BRH:0
LF:79
LH:77
end_of_record